(dp0
S'The site collects your IP address or device IDs for analytics or research. Collection happens in an unspecified way.'
p1
S'Collection'
p2
sS'The site collects your location information for an unspecified purpose. Collection happens on the website, and your data is aggregated or anonymized.'
p3
g2
sS'The public does do something unspecified with unspecified information about you for an unspecified purpose.'
p4
S'Use'
p5
sS'You can choose not to use a service or feature to avoid the use of generic personal information by a third party, which collects or receives it for an additional (non-basic) service or feature.'
p6
S'Choices'
p7
sS'The site collects your website activities for personalization or customization. Collection happens in an unspecified way.'
p8
g2
sS'The site collects your generic personal information for analytics or research. Collection happens by a named service or third party, and your data is aggregated or anonymized.'
p9
g2
sS'The site collects your unspecified information for personalization or customization. Collection happens on the website.'
p10
g2
sS'The site collects your cookies or tracking elements for personalization or customization. Collection happens when you implicitly provide information on the website, and your data is aggregated or anonymized. You can configure your privacy with browser settings.'
p11
g2
sS'The site collects your IP address or device IDs for an unspecified purpose. Collection happens in an unspecified way, and your data is aggregated or anonymized.'
p12
g2
sS'An unnamed third party does receive unspecified information about you for an additional (non-basic) service or feature.'
p13
g5
sS'The site collects your generic personal information for a basic service or feature. Collection happens in an unspecified way. You can make a choice about the use of your information.'
p14
g2
sS'An unnamed third party does track on the first party website or app your computer information for targeted advertising.'
p15
g5
sS"A user's unspecified information is retained for a limited (but unspecified) period of time to meet legal or law enforcement requirements, and then it is deleted.."
p16
S'Disclosure'
p17
sS'A user can view their information, within the scope of unspecified user information.'
p18
S'None'
p19
sS'You can make no specified choices about the use of social media data by a third party, which collects or receives it for an additional (non-basic) service or feature.'
p20
g7
sS'The site collects your unspecified information for marketing purposes. Collection happens in an unspecified way.'
p21
g2
sS'The site collects your cookies or tracking elements for service operations or security. Collection happens when you implicitly provide information on the website.'
p22
g2
sS'The site collects your generic personal information for advertising. Collection happens when you implicitly provide information by an unnamed service or third party, and your data is identifiable.'
p23
g2
sS'The site collects your computer information for analytics or research. Collection happens in an unspecified way.'
p24
g2
sS'The site collects your user profile for an additional (non-basic) service or feature. Collection happens when you explicitly provide information in an unspecified way.'
p25
g2
sS'The site collects your generic personal information for personalization or customization. Collection happens on the website.'
p26
g2
sS'The site collects your location information for an unspecified purpose. Collection happens in an unspecified way.'
p27
g2
sS'You can use third party privacy settings to control the use of cookies and tracking elements by an unspecified party for advertising.'
p28
g7
sS'The site collects your website activities for an unspecified purpose. Collection happens when you implicitly provide information in an unspecified way. You can choose not to use the service or feature.'
p29
g2
sS'An unnamed third party does track on the first party website or app unspecified information about you for an unspecified purpose.'
p30
g5
sS'The site collects your demographic information for personalization or customization. Collection happens when you explicitly provide information in an unspecified way, and your data is identifiable.'
p31
g2
sS'An unspecified third party does receive unspecified information about you for mergers or acquisitions.'
p32
g5
sS'The site collects your generic personal information for an unspecified purpose. Collection happens when you implicitly provide information on the website.'
p33
g2
sS'An unnamed third party does receive your unspecified personal information for legal requirements.'
p34
g5
sS'The site collects your contact information for a basic service or feature. Collection happens when you explicitly provide information in an unspecified way.'
p35
g2
sS'A user with an account can opt in for the use of contact information by a third party, which collects or receives it for an additional (non-basic) service or feature.'
p36
g7
sS'An unnamed third party does track on the first party website or app your cookies or tracking elements for targeted advertising. The data is aggregated or anonymized.'
p37
g5
sS'The site collects your website activities for analytics or research. Collection happens by a named service or third party, and your data is aggregated or anonymized.'
p38
g2
sS'The site collects your contact information for marketing purposes. Collection happens when you explicitly provide information in an unspecified way.'
p39
g2
sS'The site collects your IP address or device IDs for an unspecified purpose. Collection happens in an unspecified way.'
p40
g2
sS'An unnamed third party does receive your activities on the website or app for targeted advertising. The data is aggregated or anonymized.'
p41
g5
sS'An unnamed third party does receive unspecified information about you for analytics or research.'
p42
g5
sS'An unnamed third party does receive your survey data for analytics or research. The data is aggregated or anonymized. You can opt in for data collection for the collection or sharing and use of your information.'
p43
g5
sS'The site collects your website activities for a basic service or feature. Collection happens in an unspecified way.'
p44
g2
sS'An unnamed third party does receive your location information for an additional (non-basic) service or feature. You can choose not to use the service or feature.'
p45
g5
sS'The site collects your unspecified information for an unspecified purpose. Collection happens when you implicitly provide information by an unnamed service or third party.'
p46
g2
sS'A named third party does do something outside of our label scheme with your contact information for marketing purposes. You can opt out by contacting the company.'
p47
g5
sS'You can opt out (by contacting the company) from the use of generic personal information by a third party, which collects or receives it for advertising.'
p48
g7
sS'The site collects your computer information for an unspecified purpose. Collection happens in an unspecified way, and your data is aggregated or anonymized.'
p49
g2
sS'A named third party does do something unspecified with your unspecified personal information for an unspecified purpose. The data is personally identifiable. You can opt out by contacting the company.'
p50
g5
sS"The site collects your unspecified information for an unspecified purpose. Collection happens when you explicitly provide information in an unspecified way, and your data's identifiability is not covered by our label scheme."
p51
g2
sS'The site collects your unspecified information for a basic service or feature. Collection happens in the mobile app.'
p52
g2
sS'An unnamed third party does receive your unspecified personal information for targeted advertising.'
p53
g5
sS'You can make a choice about your privacy not described by our label scheme the use of unspecified information by a third party, which collects or receives it for an additional (non-basic) service or feature.'
p54
g7
sS'The site collects your cookies or tracking elements for an additional (non-basic) service or feature. Collection happens when you implicitly provide information in an unspecified way.'
p55
g2
sS'An unnamed third party does do something unspecified with your activities on the website or app for targeted advertising.'
p56
g5
sS'You can make a choice about your privacy not described by our label scheme the use of generic personal information by a third party, which collects or receives it for an unspecified purpose.'
p57
g7
sS'An unnamed third party does not receive your unspecified personal information for an unspecified purpose. The data is personally identifiable.'
p58
g5
sS'The site collects your website activities for an unspecified purpose. Collection happens by an unnamed service or third party, and your data is aggregated or anonymized.'
p59
g2
sS'You can choose not to use a service or feature to avoid the use of unspecified information by an unspecified party for an unspecified purpose.'
p60
g7
sS'An unnamed third party does receive your financial information for an additional (non-basic) service or feature.'
p61
g5
sS'An unnamed third party does receive your unspecified personal information for marketing purposes. The data is personally identifiable.'
p62
g5
sS'An unnamed third party does do something unspecified with your IP address or device IDs for analytics or research.'
p63
g5
sS'The site collects your demographic information for a basic service or feature. Collection happens in an unspecified way.'
p64
g2
sS'The site collects your location information for an unspecified purpose. Collection happens in the mobile app.'
p65
g2
sS'The site collects your location information for a basic service or feature. Collection happens in an unspecified way.'
p66
g2
sS'The site collects your unspecified information for an additional (non-basic) service or feature. Collection happens when you explicitly provide information on the website, and your data is identifiable.'
p67
g2
sS'The site collects your unspecified information for personalization or customization. Collection happens in an unspecified way.'
p68
g2
sS'Users with accounts can edit their information, within the scope of unspecified user information.'
p69
g19
sS'An unnamed third party does receive your contact information for marketing purposes. You can opt out by contacting the company.'
p70
g5
sS'The site collects your demographic information for an unspecified purpose. Collection happens when you explicitly provide information in an unspecified way.'
p71
g2
sS'The site collects your location information for an unspecified purpose. Collection happens on the website.'
p72
g2
sS'An unnamed third party does receive your unspecified personal information for an additional (non-basic) service or feature. You can choose not to use the service or feature for the use of your information.'
p73
g5
sS'The site collects your location information for a basic service or feature. Collection happens in an unspecified way, and your data is identifiable.'
p74
g2
sS'The site collects your generic personal information for personalization or customization. Collection happens in an unspecified way.'
p75
g2
sS'The site collects your generic personal information for marketing purposes. Collection happens in an unspecified way.'
p76
g2
sS'The site collects your cookies or tracking elements for analytics or research. Collection happens by some means outside of our label scheme.'
p77
g2
sS'The site collects your generic personal information for a purpose outside of our label scheme. Collection happens by some means outside of our label scheme.'
p78
g2
sS'The site collects your cookies or tracking elements for advertising. Collection happens when you implicitly provide information in an unspecified way. You can configure your privacy with third-party user settings.'
p79
g2
sS'You can opt in for the use of generic personal information by a third party, which collects or receives it for an unspecified purpose.'
p80
g7
sS'The site collects your unspecified information for an unspecified purpose. Collection happens in the mobile app.'
p81
g2
sS'The site collects your generic personal information for a basic service or feature. Collection happens when you explicitly provide information on the website, and your data is identifiable.'
p82
g2
sS'The site collects your unspecified information for marketing purposes. Collection happens on the website.'
p83
g2
sS'The site collects your demographic information for analytics or research. Collection happens in an unspecified way.'
p84
g2
sS'The site collects your generic personal information for an unspecified purpose. Collection happens when you explicitly provide information in an unspecified way.'
p85
g2
sS'The site collects your unspecified information for personalization or customization. Collection happens when you explicitly provide information on the website, and your data is identifiable.'
p86
g2
sS'The site collects your unspecified information for service operations or security. Collection happens when you explicitly provide information on the website.'
p87
g2
sS'An unnamed third party does receive your unspecified personal information for an additional (non-basic) service or feature.'
p88
g5
sS'The site collects your demographic information for analytics or research. Collection happens in an unspecified way for a user type outside of our label scheme. You can choose not to use the service or feature.'
p89
g2
sS'The site collects an information type outside of our label scheme for advertising. Collection happens in an unspecified way.'
p90
g2
sS'An unnamed third party does do something unspecified with your IP address or device IDs for personalization or customization.'
p91
g5
sS'The site collects your cookies or tracking elements for an unspecified purpose. Collection happens when you implicitly provide information on the website. You can configure your privacy with browser settings.'
p92
g2
sS'An unnamed third party does collect on the first party website or app your cookies or tracking elements for an unspecified purpose.'
p93
g5
sS'The site collects your location information for an additional (non-basic) service or feature. Collection happens in the mobile app. You can opt in for data collection.'
p94
g2
sS'The site collects your generic personal information for analytics or research. Collection happens on the website.'
p95
g2
sS'An unnamed third party does receive unspecified information about you for an unspecified purpose. The data is aggregated or anonymized.'
p96
g5
sS'Another part of the company or institution does receive your unspecified personal information for service operations or security. The data is personally identifiable.'
p97
g5
sS'The site collects your generic personal information for analytics or research. Collection happens when you implicitly provide information in an unspecified way.'
p98
g2
sS'The public does not see your contact information for an unspecified purpose. This applies to users without accounts.'
p99
g5
sS'The site collects your cookies or tracking elements for personalization or customization. Collection happens by some means outside of our label scheme.'
p100
g2
sS'An unspecified third party does receive unspecified information about you for legal requirements.'
p101
g5
sS'Another part of the company or institution does collect on the first party website or app your cookies or tracking elements for an unspecified purpose. The data is personally identifiable.'
p102
g5
sS'The site collects your location information for an additional (non-basic) service or feature. Collection happens when you implicitly provide information in the mobile app. You can opt in for data collection for the use of your information.'
p103
g2
sS'The site collects your location information for an additional (non-basic) service or feature. Collection happens in the mobile app.'
p104
g2
sS'Another part of the company or institution does receive your unspecified personal information for a basic service or feature. The data is personally identifiable.'
p105
g5
sS'The site collects your cookies or tracking elements for analytics or research. Collection happens when you implicitly provide information on the website, and your data is aggregated or anonymized.'
p106
g2
sS'You can use third party privacy settings to control the use of unspecified information by an unspecified party for an unspecified purpose.'
p107
g7
sS'The site collects your cookies or tracking elements for personalization or customization. Collection happens on the website.'
p108
g2
sS"The website ignores Do Not Track headers and the user's Do Not Track preference."
p109
g2
sS'The site collects your location information for an unspecified purpose. Collection happens in an unspecified way, and your data is aggregated or anonymized.'
p110
g2
sS'The site collects your contact information for a basic service or feature. Collection happens when you explicitly provide information on the website, and your data is identifiable.'
p111
g2
sS'The site collects your location information for an unspecified purpose. Collection happens in the mobile app. You can configure your privacy with browser settings.'
p112
g2
sS'The site collects your generic personal information for marketing purposes. Collection happens when you implicitly provide information on the website, and your data is identifiable.'
p113
g2
sS'The site collects your computer information for an unspecified purpose. Collection happens when you implicitly provide information in an unspecified way.'
p114
g2
sS'An unnamed third party does not do something outside of our label scheme with your contact information for an unspecified purpose. This applies to users with accounts. You can opt in for data collection for the use of your information.'
p115
g5
sS'An unnamed third party does track on the first party website or app your cookies or tracking elements for targeted advertising. You can configure your privacy with third-party user settings.'
p116
g5
sS'The site collects your unspecified information for an unspecified purpose. Collection happens when you explicitly provide information by some means outside of our label scheme for a user type outside of our label scheme. You can opt in for data collection for the collection of your information.'
p117
g2
sS'An unnamed third party does not receive your contact information for marketing purposes. You can opt out by contacting the company.'
p118
g5
sS'The site collects your contact information for a basic service or feature. Collection happens in an unspecified way, and your data is identifiable.'
p119
g2
sS'The site collects your generic personal information for an additional (non-basic) service or feature. Collection happens when you explicitly provide information on the website, and your data is identifiable. You can opt in for data collection.'
p120
g2
sS'The site collects your website activities for an unspecified purpose. Collection happens in an unspecified way. You can opt in for data collection for the collection of your information.'
p121
g2
sS'The site collects your generic personal information for personalization or customization. Collection happens when you implicitly provide information on the website for users with accounts, and your data is identifiable.'
p122
g2
sS"A user's unspecified information is retained for a limited (but unspecified) period of time to fulfill a purpose not covered by our label scheme."
p123
g17
sS'A named third party does not receive your cookies or tracking elements for an unspecified purpose. The data is personally identifiable. You can opt in for data collection.'
p124
g5
sS'When a change of an unspecified nature is made to the privacy policy, users are personally notified. Users can participate in a process to influence the change.'
p125
g7
sS'A named third party does receive your survey data for an unspecified purpose. The data is aggregated or anonymized.'
p126
g5
sS'The site collects your contact information for marketing purposes. Collection happens when you implicitly provide information by an unnamed service or third party.'
p127
g2
sS'The site collects your generic personal information for service operations or security. Collection happens in an unspecified way.'
p128
g2
sS'An unnamed third party does receive your unspecified personal information for an additional (non-basic) service or feature. The data is personally identifiable.'
p129
g5
sS'An unnamed third party does receive your activities on the website or app for an unspecified purpose. The data is aggregated or anonymized.'
p130
g5
sS"When a change is made to the privacy policy that significantly affects data practices, users are notified in an unspecified manner. Users' choices regarding policy changes are not mentioned or are unclear."
p131
g7
sS'An unnamed third party does do something unspecified with your location information for targeted advertising.'
p132
g5
sS'The site collects your cookies or tracking elements for advertising. Collection happens in an unspecified way.'
p133
g2
sS'The site collects your generic personal information for legal requirements. Collection happens in an unspecified way.'
p134
g2
sS'You can make a choice about your privacy not described by our label scheme the use of generic personal information by the site, which collects it for an unspecified purpose.'
p135
g7
sS'An unnamed third party does collect on the first party website or app unspecified information about you for targeted advertising.'
p136
g5
sS'The site collects your location information for analytics or research. Collection happens when you explicitly provide information in an unspecified way.'
p137
g2
sS'An unnamed third party does receive your unspecified personal information for mergers or acquisitions. The data is personally identifiable.'
p138
g5
sS'When a change of an unspecified nature is made to the privacy policy, users receive no notification. Users can participate in a process to influence the change.'
p139
g7
sS'The site collects your cookies or tracking elements for an unspecified purpose. Collection happens when you implicitly provide information on the website, and your data is identifiable.'
p140
g2
sS'The site collects your location information for personalization or customization. Collection happens when you explicitly provide information in an unspecified way, and your data is identifiable.'
p141
g2
sS'An unnamed third party does track on the first party website or app unspecified information about you for an unspecified purpose. The data is aggregated or anonymized.'
p142
g5
sS'An unnamed third party does collect on the first party website or app unspecified information about you for an additional (non-basic) service or feature.'
p143
g5
sS'The site collects your cookies or tracking elements for analytics or research. Collection happens in an unspecified way, and your data is aggregated or anonymized.'
p144
g2
sS'The site collects your financial information for a basic service or feature. Collection happens in an unspecified way, and your data is identifiable.'
p145
g2
sS'The site collects your website activities for an additional (non-basic) service or feature. Collection happens by a named service or third party.'
p146
g2
sS'The site collects your contact information for an unspecified purpose. Collection happens by other websites.'
p147
g2
sS'The site collects your unspecified information for an unspecified purpose. Collection happens on the website, and your data is aggregated or anonymized.'
p148
g2
sS'A named third party does receive unspecified information about you for an unspecified purpose. You can opt in for data collection for the collection or sharing of your information.'
p149
g5
sS'An unnamed third party does not receive unspecified information about you for an unspecified purpose. You can opt in for data collection.'
p150
g5
sS'The site collects your unspecified information for an unspecified purpose. Collection happens by some means outside of our label scheme.'
p151
g2
sS'The site collects your cookies or tracking elements for advertising. Collection happens on the website.'
p152
g2
sS'The site collects an information type outside of our label scheme for an additional (non-basic) service or feature. Collection happens when you explicitly provide information on the website, and your data is identifiable. You can opt in for data collection for the collection of your information.'
p153
g2
sS'The site collects your cookies or tracking elements for advertising. Collection happens on the website. You can configure your privacy with browser settings.'
p154
g2
sS'The site collects your contact information for an additional (non-basic) service or feature. Collection happens in an unspecified way, and your data is identifiable.'
p155
g2
sS'The site collects your generic personal information for analytics or research. Collection happens when you explicitly provide information in an unspecified way.'
p156
g2
sS'You can make no specified choices about the use of cookies and tracking elements by a third party, which collects or receives it for advertising.'
p157
g7
sS'The public does see your contact information for an additional (non-basic) service or feature.'
p158
g5
sS'An unnamed third party does receive unspecified information about you for mergers or acquisitions.'
p159
g5
sS'You can opt out (by contacting the company) from the use of generic personal information by a third party, which uses it for marketing purposes.'
p160
g7
sS'The public does receive your unspecified personal information for an unspecified purpose. You can opt in for data collection.'
p161
g5
sS'The site collects your unspecified information for a purpose outside of our label scheme. Collection happens when you implicitly provide information by some means outside of our label scheme.'
p162
g2
sS'The site collects your unspecified information for service operations or security. Collection happens when you implicitly provide information in an unspecified way.'
p163
g2
sS'The site collects your social media data for an additional (non-basic) service or feature. Collection happens when you explicitly provide information by a named service or third party. You can configure your privacy with third-party user settings.'
p164
g2
sS'The site collects your unspecified information for marketing purposes. Collection happens when you implicitly provide information on the website, and your data is identifiable.'
p165
g2
sS'The site collects your generic personal information for an additional (non-basic) service or feature. Collection happens when you explicitly provide information in an unspecified way.'
p166
g2
sS'The site collects your unspecified information for marketing purposes. Collection happens in an unspecified way, and your data is identifiable.'
p167
g2
sS'When a change is made to the privacy policy that significantly affects data practices, users are notified in an unspecified manner. Users must agree before their data is treated according to the new privacy policy.'
p168
g7
sS'An unnamed third party does track on the first party website or app your cookies or tracking elements for an unspecified purpose. You can configure your privacy with browser settings.'
p169
g5
sS'The site collects your IP address or device IDs for analytics or research. Collection happens on the website.'
p170
g2
sS'The site collects your social media data for an unspecified purpose. Collection happens on the website, and your data is identifiable.'
p171
g2
sS'An unnamed third party does receive your unspecified personal information for a basic service or feature. The data is personally identifiable. You can opt out by contacting the company for the use of your information.'
p172
g5
sS'The site collects your cookies or tracking elements for an unspecified purpose. Collection happens in an unspecified way. You can configure your privacy with browser settings.'
p173
g2
sS'An unnamed third party does track on the first party website or app your activities on the website or app for analytics or research.'
p174
g5
sS'An unnamed third party does receive your activities on the website or app for targeted advertising. The data is aggregated or anonymized. You can make a choice about the use of your information.'
p175
g5
sS'The site collects your cookies or tracking elements for advertising. Collection happens when you implicitly provide information on the website.'
p176
g2
sS'An unnamed third party does receive unspecified information about you for marketing purposes.'
p177
g5
sS'The site collects your website activities for marketing purposes. Collection happens by some means outside of our label scheme.'
p178
g2
sS'A named third party does receive your unspecified personal information for targeted advertising. The data is aggregated or anonymized.'
p179
g5
sS'The site collects your cookies or tracking elements for analytics or research. Collection happens when you implicitly provide information on the website.'
p180
g2
sS'The site collects your computer information for an unspecified purpose. Collection happens in an unspecified way.'
p181
g2
sS'The site collects your generic personal information for an additional (non-basic) service or feature. Collection happens in an unspecified way.'
p182
g2
sS'The site collects your unspecified information for marketing purposes. Collection happens when you implicitly provide information by an unnamed service or third party.'
p183
g2
sS'The site collects your location information for an additional (non-basic) service or feature. Collection happens in the mobile app. You can opt in for data collection for the collection of your information.'
p184
g2
sS'The site collects your contact information for an additional (non-basic) service or feature. Collection happens when you explicitly provide information in an unspecified way.'
p185
g2
sS'The site collects your IP address or device IDs for an unspecified purpose. Collection happens in an unspecified way. You can opt in for data collection for the collection of your information.'
p186
g2
sS'An unnamed third party does do something unspecified with unspecified information about you for an unspecified purpose.'
p187
g5
sS'The site collects your IP address or device IDs for a purpose outside of our label scheme. Collection happens in an unspecified way.'
p188
g2
sS'The site collects your location information for personalization or customization. Collection happens in the mobile app. You can configure your privacy with browser settings.'
p189
g2
sS'The site collects your demographic information for an unspecified purpose. Collection happens on the website, and your data is aggregated or anonymized.'
p190
g2
sS'You can use third party privacy settings to control the use of unspecified information by a third party, which uses it for advertising.'
p191
g7
sS'The site collects your cookies or tracking elements for an unspecified purpose. Collection happens in an unspecified way. You can opt out using the provided link.'
p192
g2
sS'The site collects your generic personal information for an unspecified purpose. Collection happens when you implicitly provide information by an unnamed service or third party.'
p193
g2
sS'An unnamed third party does receive your unspecified personal information for legal requirements. The data is personally identifiable.'
p194
g5
sS'A named third party does not receive your contact information for an unspecified purpose. The data is personally identifiable. You can opt in for data collection.'
p195
g5
sS'An unnamed third party does receive unspecified information about you for an unspecified purpose.'
p196
g5
sS'The site collects your generic personal information for a basic service or feature. Collection happens in an unspecified way, and your data is identifiable.'
p197
g2
sS'The site collects your cookies or tracking elements for advertising. Collection happens in an unspecified way, and your data is aggregated or anonymized.'
p198
g2
sS'The site collects your contact information for personalization or customization. Collection happens by an unnamed service or third party.'
p199
g2
sS'The site collects your social media data for an unspecified purpose. Collection happens by other websites, and your data is identifiable.'
p200
g2
sS'You can opt in for the use of unspecified information by a third party, which collects or receives it for an unspecified purpose.'
p201
g7
sS'Another part of the company or institution does receive unspecified information about you for a basic service or feature. The data is personally identifiable.'
p202
g5
sS'You can make no specified choices about the use of unspecified information by a third party, which collects or receives it for an unspecified purpose.'
p203
g7
sS'A named third party does receive your unspecified personal information for targeted advertising. The data is personally identifiable. You can opt out by contacting the company.'
p204
g5
sS'An unnamed third party does collect on the first party website or app your cookies or tracking elements for targeted advertising.'
p205
g5
sS'The site collects your unspecified information for an unspecified purpose. Collection happens when you implicitly provide information on the website.'
p206
g2
sS'A named third party does do something outside of our label scheme with your activities on the website or app for targeted advertising.'
p207
g5
sS'An unnamed third party does receive your contact information for targeted advertising. The data is personally identifiable. You can opt out by contacting the company for the use of your information.'
p208
g5
sS'An unnamed third party does receive unspecified information about you for analytics or research. The data is aggregated or anonymized.'
p209
g5
sS'You can opt in for the use of activities on the website or app by a third party, which collects or receives it for an unspecified purpose.'
p210
g7
sS'The site collects your unspecified information for an unspecified purpose. Collection happens when you implicitly provide information by other parts of the company or affiliates, and your data is identifiable.'
p211
g2
sS'An unnamed third party does not receive your survey data for analytics or research. The data is personally identifiable. You can opt in for data collection for the collection or sharing and use of your information.'
p212
g5
sS'You can use privacy configuration settings (in the website or app) to control the use of contact information by the site, which uses it for an additional (non-basic) service or feature.'
p213
g7
sS'The site collects your cookies or tracking elements for advertising. Collection happens when you implicitly provide information on the website, and your data is aggregated or anonymized.'
p214
g2
sS'The site collects your cookies or tracking elements for marketing purposes. Collection happens when you implicitly provide information on the website, and your data is aggregated or anonymized.'
p215
g2
sS'An unnamed third party does do something unspecified with your activities on the website or app for personalization or customization.'
p216
g5
sS'An unspecified third party does receive your activities on the website or app for an additional (non-basic) service or feature.'
p217
g5
sS'The site collects an information type outside of our label scheme for an unspecified purpose. Collection happens in an unspecified way.'
p218
g2
sS'You can use privacy configuration settings (in your browser or on your device) to control the use of cookies and tracking elements by the site, which collects it for an unspecified purpose.'
p219
g7
sS'The site collects your cookies or tracking elements for personalization or customization. Collection happens when you implicitly provide information on the website. You can configure your privacy with third-party user settings.'
p220
g2
sS'The site collects your generic personal information for an unspecified purpose. Collection happens when you implicitly provide information by a named service or third party.'
p221
g2
sS'An unnamed third party does do something unspecified with your activities on the website or app for analytics or research.'
p222
g5
sS'The site collects your contact information for a basic service or feature. Collection happens on the website for users with accounts.'
p223
g2
sS'The public does do something unspecified with your user profile for an unspecified purpose.'
p224
g5
sS'You can make no specified choices about the use of unspecified information by the site, which uses it for a purpose outside of our label scheme.'
p225
g7
sS'The site collects your cookies or tracking elements for advertising. Collection happens when you implicitly provide information in an unspecified way.'
p226
g2
sS'A user with an account can make a choice about your privacy not described by our label scheme the use of contact information by the site, which uses it for a purpose outside of our label scheme.'
p227
g7
sS'You can opt out (via a link) from the use of cookies and tracking elements by a third party, which collects or receives it for advertising.'
p228
g7
sS'The site collects your website activities for an additional (non-basic) service or feature. Collection happens when you implicitly provide information in an unspecified way.'
p229
g2
sS'The site collects your generic personal information for personalization or customization. Collection happens when you explicitly provide information on the website, and your data is identifiable.'
p230
g2
sS'An unnamed third party does do something unspecified with your IP address or device IDs for targeted advertising.'
p231
g5
sS'A named third party does not track on the first party website or app your contact information for an unspecified purpose.'
p232
g5
sS'You can opt out (by contacting the company) from the use of contact information by a third party, which collects or receives it for marketing purposes.'
p233
g7
sS'An unnamed third party does collect on the first party website or app your activities on the website or app for an unspecified purpose.'
p234
g5
sS"A user's unspecified information is retained for an unspecified duration to fulfill an unspecified purpose."
p235
g17
sS"When a change is made to the privacy policy that significantly affects data practices, the policy date is updated or information about the change is posted as part of the policy. Users' choices regarding policy changes are not mentioned or are unclear."
p236
g7
sS'The site collects your IP address or device IDs for advertising. Collection happens in an unspecified way.'
p237
g2
sS'A user can delete their account (although the company or organization may continue to keep some data), within the scope of information the company has learned about the user.'
p238
g19
sS'The site collects your cookies or tracking elements for an additional (non-basic) service or feature. Collection happens when you implicitly provide information in an unspecified way, and your data is identifiable. You can configure your privacy with browser settings for the collection of your information.'
p239
g2
sS'An unnamed third party does receive your survey data for analytics or research. The data is aggregated or anonymized.'
p240
g5
sS'The site collects your generic personal information for analytics or research. Collection happens when you explicitly provide information in an unspecified way, and your data is identifiable.'
p241
g2
sS'An unnamed third party does collect on the first party website or app your location information for an unspecified purpose.'
p242
g5
sS'The site does not collect your unspecified information for an unspecified purpose. Collection happens when you explicitly provide information on the website.'
p243
g2
sS'The site collects your unspecified information for service operations or security. Collection happens in an unspecified way.'
p244
g2
sS'The site collects your generic personal information for an unspecified purpose. Collection happens on the website.'
p245
g2
sS'You can use third party privacy settings to control the use of social media data by the site, which uses it for an additional (non-basic) service or feature.'
p246
g7
sS'The site collects your financial information for an additional (non-basic) service or feature. Collection happens by some means outside of our label scheme.'
p247
g2
sS'The site collects your generic personal information for marketing purposes. Collection happens when you implicitly provide information in an unspecified way, and your data is identifiable. You can opt out by contacting the company for the use of your information.'
p248
g2
sS'An unnamed third party does do something outside of our label scheme with your cookies or tracking elements for an unspecified purpose.'
p249
g5
sS'You can opt in for the use of unique personal identifier by the site, which collects it for an unspecified purpose.'
p250
g7
sS'The site collects your computer information for analytics or research. Collection happens by some means outside of our label scheme.'
p251
g2
sS'An unnamed third party does track on the first party website or app unspecified information about you for analytics or research. The data is aggregated or anonymized.'
p252
g5
sS'An unnamed third party does not receive your contact information for a purpose outside of our label scheme. You can configure your privacy using a method outside our label scheme.'
p253
g5
sS'A named third party does receive your unspecified personal information for marketing purposes. The data is personally identifiable. You can opt out by contacting the company.'
p254
g5
sS'A named third party does receive your unspecified personal information for an additional (non-basic) service or feature. The data is personally identifiable. You can opt out by contacting the company.'
p255
g5
sS'The site collects your user profile for an unspecified purpose. Collection happens by other websites.'
p256
g2
sS'The site collects your generic personal information for a basic service or feature. Collection happens when you explicitly provide information in an unspecified way.'
p257
g2
sS'Another part of the company or institution does receive your unspecified personal information for mergers or acquisitions.'
p258
g5
sS'The site collects your contact information for a basic service or feature. Collection happens by some means outside of our label scheme. You can configure your privacy using a method outside our label scheme for the use of your information.'
p259
g2
sS'An unnamed third party does receive your unspecified personal information for service operations or security. The data is personally identifiable.'
p260
g5
sS'The site collects your unspecified information for an unspecified purpose. Collection happens in an unspecified way.'
p261
g2
sS'The site collects your unspecified information for analytics or research. Collection happens when you implicitly provide information on the website, and your data is aggregated or anonymized.'
p262
g2
sS'The site collects your unspecified information for marketing purposes. Collection happens when you implicitly provide information by some means outside of our label scheme.'
p263
g2
sS'The site collects your generic personal information for marketing purposes. Collection happens when you explicitly provide information in an unspecified way.'
p264
g2
sS'The site collects your contact information for a basic service or feature. Collection happens by some means outside of our label scheme.'
p265
g2
sS'The site collects your location information for a basic service or feature. Collection happens when you explicitly provide information in an unspecified way for users with accounts. You can opt in for data collection for the collection of your information.'
p266
g2
sS'You can make no specified choices about the use of unspecified information by an unspecified party for marketing purposes.'
p267
g7
sS'The public does do something outside of our label scheme with information about you not covered by our label scheme for marketing purposes. You can choose not to use the service or feature for the collection or sharing and use of your information.'
p268
g5
sS'A named third party does receive your unspecified personal information for analytics or research. The data is personally identifiable. You can opt out by contacting the company.'
p269
g5
sS'The site collects your demographic information for an unspecified purpose. Collection happens when you explicitly provide information in an unspecified way for users with accounts, and your data is aggregated or anonymized. You can opt in for data collection for the collection of your information.'
p270
g2
sS'An unnamed third party does track on the first party website or app your location information for analytics or research.'
p271
g5
sS'The site collects your unspecified information for personalization or customization. Collection happens when you implicitly provide information by some means outside of our label scheme.'
p272
g2
sS'Users with accounts can view their information, within the scope of unspecified user information.'
p273
g19
sS'The site collects your financial information for a basic service or feature. Collection happens when you explicitly provide information in an unspecified way.'
p274
g2
sS'The site collects your computer information for personalization or customization. Collection happens when you implicitly provide information on the website.'
p275
g2
sS'Another part of the company or institution does see your unspecified personal information for marketing purposes. The data is personally identifiable.'
p276
g5
sS'You can opt out (by contacting the company) from the use of unspecified information by an unspecified party for marketing purposes.'
p277
g7
sS'An unnamed third party does do something unspecified with your cookies or tracking elements for targeted advertising.'
p278
g5
sS'The site collects your IP address or device IDs for an unspecified purpose. Collection happens on the website, and your data is aggregated or anonymized.'
p279
g2
sS'An unnamed third party does do something unspecified with your unspecified personal information for service operations or security.'
p280
g5
sS'The site collects your generic personal information for marketing purposes. Collection happens in an unspecified way, and your data is identifiable. You can opt out by contacting the company.'
p281
g2
sS'The site collects your website activities for an unspecified purpose. Collection happens on the website, and your data is aggregated or anonymized.'
p282
g2
sS'An unnamed third party does receive information about you not covered by our label scheme for legal requirements.'
p283
g5
sS'An unnamed third party does track on the first party website or app your cookies or tracking elements for analytics or research.'
p284
g5
sS'The site collects your contact information for an unspecified purpose. Collection happens when you explicitly provide information in an unspecified way.'
p285
g2
sS'You can use privacy configuration settings (in your browser or on your device) to control the use of cookies and tracking elements by an unspecified party for an unspecified purpose.'
p286
g7
sS'The site collects your unspecified information for a basic service or feature. Collection happens when you explicitly provide information on the website, and your data is identifiable.'
p287
g2
sS'A named third party does receive your unspecified personal information for an additional (non-basic) service or feature.'
p288
g5
sS'The site collects your demographic information for personalization or customization. Collection happens by an unnamed service or third party.'
p289
g2
sS'The site collects your generic personal information for an unspecified purpose. Collection happens by an unnamed service or third party.'
p290
g2
sS'An unnamed third party does receive your demographic information for targeted advertising. The data is aggregated or anonymized.'
p291
g5
sS'The site collects your generic personal information for a basic service or feature. Collection happens on the website.'
p292
g2
sS'The site collects your unspecified information for an additional (non-basic) service or feature. Collection happens in an unspecified way.'
p293
g2
sS'The site collects your cookies or tracking elements for analytics or research. Collection happens by a named service or third party, and your data is aggregated or anonymized.'
p294
g2
sS'An unnamed third party does receive your contact information for a basic service or feature.'
p295
g5
sS'An unnamed third party does receive your unspecified personal information for marketing purposes. The data is personally identifiable. You can opt out by contacting the company for the use of your information.'
p296
g5
sS'A user without an account can opt out (by contacting the company) from the use of contact information by the site, which collects it for an additional (non-basic) service or feature.'
p297
g7
sS'The site collects your contact information for an unspecified purpose. Collection happens when you explicitly provide information in an unspecified way, and your data is identifiable.'
p298
g2
sS'The site collects your location information for advertising. Collection happens on the website.'
p299
g2
sS'Other users does see your unspecified personal information for an additional (non-basic) service or feature. You can opt in for data collection for the collection or sharing of your information.'
p300
g5
sS'You can opt out (via a link) from the use of unique personal identifier by the site, which uses it for marketing purposes.'
p301
g7
sS'The site collects your generic personal information for advertising. Collection happens on the website.'
p302
g2
sS'The site collects your financial information for an additional (non-basic) service or feature. Collection happens in an unspecified way, and your data is identifiable.'
p303
g2
sS'An unnamed third party does receive unspecified information about you for marketing purposes. The data is personally identifiable.'
p304
g5
sS'An unnamed third party does collect on the first party website or app your activities on the website or app for service operations or security.'
p305
g5
sS'An unnamed third party does receive unspecified information about you for targeted advertising. The data is aggregated or anonymized.'
p306
g5
sS'The site collects your cookies or tracking elements for a basic service or feature. Collection happens when you implicitly provide information on the website.'
p307
g2
sS'The site collects your IP address or device IDs for an unspecified purpose. Collection happens when you implicitly provide information on the website.'
p308
g2
sS'The site collects your generic personal information for an additional (non-basic) service or feature. Collection happens in an unspecified way, and your data is identifiable.'
p309
g2
sS'You can opt out (via a link) from the use of contact information by an unspecified party for marketing purposes.'
p310
g7
sS'The site collects your location information for an unspecified purpose. Collection happens when you explicitly provide information in an unspecified way for users with accounts, and your data is aggregated or anonymized. You can opt in for data collection for the collection of your information.'
p311
g2
sS'The site collects your unspecified information for analytics or research. Collection happens on the website.'
p312
g2
sS'An unnamed third party does not receive your unspecified personal information for an unspecified purpose. The data is personally identifiable. You can opt in for data collection.'
p313
g5
sS'The public does see your user profile for an additional (non-basic) service or feature.'
p314
g5
sS'A named third party does receive your unspecified personal information for a basic service or feature. The data is personally identifiable. You can opt out by contacting the company.'
p315
g5
sS'The public does see unspecified information about you for a purpose outside of our label scheme. This applies to users with accounts. You can opt in for data collection.'
p316
g5
sS'The site collects your demographic information for advertising. Collection happens in an unspecified way.'
p317
g2
sS'An unnamed third party does not receive your contact information for an unspecified purpose. This applies to users with accounts. You can opt in for data collection for the use of your information.'
p318
g5
sS'The public does do something outside of our label scheme with unspecified information about you for an additional (non-basic) service or feature. You can choose not to use the service or feature.'
p319
g5
sS'The site collects your generic personal information for an unspecified purpose. Collection happens when you explicitly provide information in an unspecified way. You can choose not to use the service or feature for the collection and use of your information.'
p320
g2
sS'An unnamed third party does receive unspecified information about you for mergers or acquisitions. The data is personally identifiable.'
p321
g5
sS'The public does see unspecified information about you for an unspecified purpose. You can opt in for data collection for the collection or sharing and use of your information.'
p322
g5
sS'The site collects your cookies or tracking elements for an unspecified purpose. Collection happens when you implicitly provide information in an unspecified way.'
p323
g2
sS'A third party outside of our label scheme does receive unspecified information about you for an unspecified purpose. You can choose not to use the service or feature.'
p324
g5
sS'The site collects your financial information for a basic service or feature. Collection happens when you explicitly provide information on the website, and your data is identifiable.'
p325
g2
sS'The site collects your generic personal information for marketing purposes. Collection happens when you explicitly provide information on the website, and your data is identifiable.'
p326
g2
sS'An unnamed third party does receive your unspecified personal information for an unspecified purpose.'
p327
g5
sS'An unnamed third party does receive your location information for targeted advertising. The data is personally identifiable. You can opt out by contacting the company for the use of your information.'
p328
g5
sS'The site collects your generic personal information for an unspecified purpose. Collection happens in an unspecified way. You can opt in for data collection for the collection of your information.'
p329
g2
sS'An unnamed third party does collect on the first party website or app your IP address or device IDs for targeted advertising.'
p330
g5
sS'An unnamed third party does receive information about you not covered by our label scheme for an unspecified purpose.'
p331
g5
sS'An unnamed third party does receive your activities on the website or app for personalization or customization. The data is aggregated or anonymized.'
p332
g5
sS'An unnamed third party does do something outside of our label scheme with unspecified information about you for an unspecified purpose.'
p333
g5
sS'The site collects your contact information for a basic service or feature. Collection happens on the website.'
p334
g2
sS'A user with an account can opt in for the use of unspecified information by a third party, which collects or receives it for an additional (non-basic) service or feature.'
p335
g7
sS'A named third party does collect on the first party website or app your IP address or device IDs for an additional (non-basic) service or feature.'
p336
g5
sS'You can use third party privacy settings to control the use of social media data by the site, which collects it for an additional (non-basic) service or feature.'
p337
g7
sS'An unnamed third party does receive your cookies or tracking elements for a basic service or feature.'
p338
g5
sS'An unnamed third party does receive unspecified information about you for an unspecified purpose. You can opt in for data collection.'
p339
g5
sS'The site collects your unspecified information for a basic service or feature. Collection happens when you explicitly provide information in an unspecified way.'
p340
g2
sS"A user's generic personal information is retained for an unspecified duration to fulfill an unspecified purpose."
p341
g17
sS'An unnamed third party does receive unspecified information about you for a basic service or feature.'
p342
g5
sS'The site collects your IP address or device IDs for an unspecified purpose. Collection happens on the website.'
p343
g2
sS'A user can view their information, within the scope of information explicitly provided by the user.'
p344
g19
sS"A user's generic personal information is retained for a limited (but unspecified) period of time to perform a requested service, and then it is deleted.."
p345
g17
sS"When a change of an unspecified nature is made to the privacy policy, users are notified in a manner outside of our label scheme. Users' choices regarding policy changes are not mentioned or are unclear."
p346
g7
sS'A named third party does not receive your unspecified personal information for targeted advertising.'
p347
g5
sS'An unnamed third party does receive your IP address or device IDs for an additional (non-basic) service or feature.'
p348
g5
sS'The site collects your generic personal information for a basic service or feature. Collection happens when you implicitly provide information on the website, and your data is identifiable.'
p349
g2
sS'The site collects your user profile for a basic service or feature. Collection happens on the website for users with accounts. You can opt in for data collection.'
p350
g2
sS'Data is stored securely, e.g. in an encrypted format or database.'
p351
g17
sS'You can opt out (by contacting the company) from the use of contact information by the site, which uses it for marketing purposes.'
p352
g7
sS'An unnamed third party does not receive your cookies or tracking elements for an unspecified purpose. The data is personally identifiable. You can opt in for data collection.'
p353
g5
sS'An unspecified third party does receive your unspecified personal information for mergers or acquisitions. The data is personally identifiable.'
p354
g5
sS'The public does receive your activities on the website or app for an unspecified purpose. You can opt in for data collection.'
p355
g5
sS'The site collects your IP address or device IDs for an unspecified purpose. Collection happens when you implicitly provide information in an unspecified way, and your data is aggregated or anonymized.'
p356
g2
sS'Users with accounts can view their information, within the scope of information explicitly provided by the user.'
p357
g19
sS'The site collects your generic personal information for an additional (non-basic) service or feature. Collection happens when you explicitly provide information in an unspecified way, and your data is identifiable.'
p358
g2
sS'The site collects your IP address or device IDs for an additional (non-basic) service or feature. Collection happens when you implicitly provide information in an unspecified way.'
p359
g2
sS'A user can view their information, within the scope of transactional data (e.g., online activity, purchases).'
p360
g19
sS'The site collects your survey data for an unspecified purpose. Collection happens by some means outside of our label scheme.'
p361
g2
sS'The site collects your demographic information for an additional (non-basic) service or feature. Collection happens in an unspecified way, and your data is identifiable.'
p362
g2
sS'A named third party does receive your demographic information for targeted advertising.'
p363
g5
sS'A user can edit their information, within the scope of information the company has learned about the user.'
p364
g19
sS'Another part of the company or institution does see your unspecified personal information for analytics or research. The data is personally identifiable.'
p365
g5
sS'An unnamed third party does receive information about you not covered by our label scheme for marketing purposes. This applies to a user type outside of our label scheme. You can opt out by contacting the company for the collection or sharing of your information.'
p366
g5
sS'The site collects your contact information for marketing purposes. Collection happens in an unspecified way.'
p367
g2
sS"Do Not Track headers are mentioned but it is unclear if the company adheres to the user's Do Not Track preference."
p368
g2
sS'An unnamed third party does receive your financial information for a basic service or feature.'
p369
g5
sS'A named third party does receive your activities on the website or app for personalization or customization.'
p370
g5
sS'The policy makes a statement about how data from Californian users is treated (e.g., California privacy rights).'
p371
g19
sS"The site collects your location information for an unspecified purpose. Collection happens when you explicitly provide information in an unspecified way, and your data's identifiability is not covered by our label scheme."
p372
g2
sS'The site collects your contact information for an unspecified purpose. Collection happens by some means outside of our label scheme.'
p373
g2
sS'An unnamed third party does receive your unspecified personal information for personalization or customization. The data is aggregated or anonymized.'
p374
g5
sS'The text does not fit into our label scheme.'
p375
g19
sS'An unnamed third party does collect on the first party website or app your unspecified personal information for an unspecified purpose. You can choose not to use the service or feature for the collection or sharing of your information.'
p376
g5
sS'An unnamed third party does not receive your contact information for a purpose outside of our label scheme. You can opt in for data collection for the collection or sharing and use of your information.'
p377
g5
sS"When a change of an unspecified nature is made to the privacy policy, users are notified when visiting the website. Users' choices regarding policy changes are not mentioned or are unclear."
p378
g7
sS'The site collects your unspecified information for service operations or security. Collection happens on the website.'
p379
g2
sS'You can opt in for the use of user profile by a third party, which collects or receives it for an unspecified purpose.'
p380
g7
sS'The site collects your location information for an additional (non-basic) service or feature. Collection happens in the mobile app. You can choose not to use the service or feature.'
p381
g2
sS'An unnamed third party does receive your unspecified personal information for analytics or research. The data is personally identifiable. You can opt out by contacting the company for the use of your information.'
p382
g5
sS'The site collects your IP address or device IDs for analytics or research. Collection happens by some means outside of our label scheme.'
p383
g2
sS'The site collects your website activities for an unspecified purpose. Collection happens in an unspecified way.'
p384
g2
sS'The site collects your IP address or device IDs for advertising. Collection happens on the website.'
p385
g2
sS'The site collects your cookies or tracking elements for an unspecified purpose. Collection happens when you implicitly provide information on the website. You can configure your privacy with third-party user settings.'
p386
g2
sS'The site collects your unspecified information for an unspecified purpose. Collection happens when you implicitly provide information in an unspecified way.'
p387
g2
sS'A named third party does receive your unspecified personal information for an unspecified purpose.'
p388
g5
sS'You can opt out (via a link) from the use of information of a type not covered by our label scheme by a third party, which collects or receives it for an unspecified purpose.'
p389
g7
sS'The site collects your contact information for personalization or customization. Collection happens when you explicitly provide information in an unspecified way, and your data is identifiable.'
p390
g2
sS'The site collects your IP address or device IDs for an unspecified purpose. Collection happens when you implicitly provide information in an unspecified way. You can choose not to use the service or feature.'
p391
g2
sS'The site collects your unspecified information for analytics or research. Collection happens by some means outside of our label scheme.'
p392
g2
sS'The company/organization has a privacy or security program/organization in place addressing, for example, how to protect data against unauthorized access or privacy training for employees.'
p393
g17
sS'A named third party does receive your survey data for targeted advertising. The data is aggregated or anonymized.'
p394
g5
sS'The site collects your demographic information for an unspecified purpose. Collection happens when you explicitly provide information on the website, and your data is identifiable.'
p395
g2
sS'The site collects your cookies or tracking elements for a basic service or feature. Collection happens in an unspecified way.'
p396
g2
sS'Users with accounts can edit their information, within the scope of information explicitly provided by the user.'
p397
g19
sS'An unnamed third party does do something unspecified with your cookies or tracking elements for an unspecified purpose. You can configure your privacy with browser settings.'
p398
g5
sS'An unspecified third party does receive your unspecified personal information for mergers or acquisitions.'
p399
g5
sS'The site collects your contact information for marketing purposes. Collection happens on the website, and your data is identifiable. You can opt out using the provided link.'
p400
g2
sS'The site collects your cookies or tracking elements for analytics or research. Collection happens when you implicitly provide information in an unspecified way.'
p401
g2
sS'The site collects your generic personal information for an unspecified purpose. Collection happens by other parts of the company or affiliates.'
p402
g2
sS"A user's unspecified information is retained for a limited (but unspecified) period of time to fulfill an unspecified purpose."
p403
g17
sS'The site collects your demographic information for a basic service or feature. Collection happens in an unspecified way, and your data is identifiable.'
p404
g2
sS'The site collects your cookies or tracking elements for an unspecified purpose. Collection happens on the website.'
p405
g2
sS'The site collects your cookies or tracking elements for advertising. Collection happens when you implicitly provide information on the website, and your data is aggregated or anonymized. You can configure your privacy with browser settings.'
p406
g2
sS"A user's generic personal information is retained for a limited (but unspecified) period of time to meet legal or law enforcement requirements, and then it is deleted.."
p407
g17
sS'The site collects your user profile for advertising. Collection happens when you explicitly provide information in an unspecified way.'
p408
g2
sS'Users with accounts can view their information, within the scope of transactional data (e.g., online activity, purchases).'
p409
g19
sS'The site collects your unspecified information for an unspecified purpose. Collection happens by some means outside of our label scheme for users with accounts.'
p410
g2
sS'The site collects your generic personal information for legal requirements. Collection happens when you implicitly provide information in an unspecified way.'
p411
g2
sS'The site collects your cookies or tracking elements for an additional (non-basic) service or feature. Collection happens when you implicitly provide information in an unspecified way for users with accounts, and your data is identifiable. You can configure your privacy with browser settings for the collection of your information.'
p412
g2
sS'An unspecified third party does receive your unspecified personal information for service operations or security.'
p413
g5
sS'The site collects your generic personal information for an additional (non-basic) service or feature. Collection happens by some means outside of our label scheme.'
p414
g2
sS'A named third party does receive your unspecified personal information for a basic service or feature. The data is personally identifiable.'
p415
g5
sS'The public does see your unspecified personal information for an additional (non-basic) service or feature.'
p416
g5
sS'When a change of an unspecified nature is made to the privacy policy, the policy date is updated or information about the change is posted as part of the policy. Users can participate in a process to influence the change.'
p417
g7
sS'The site collects your generic personal information for service operations or security. Collection happens when you implicitly provide information in an unspecified way.'
p418
g2
sS'An unnamed third party does collect on the first party website or app your cookies or tracking elements for targeted advertising. The data is aggregated or anonymized.'
p419
g5
sS'The site collects your unspecified information for an unspecified purpose. Collection happens when you implicitly provide information by other websites.'
p420
g2
sS'When a change of an unspecified nature is made to the privacy policy, the policy date is updated or information about the change is posted as part of the policy. Users have no options regarding the change.'
p421
g7
sS'When a change of an unspecified nature is made to the privacy policy, users are notified in an unspecified manner. Users have no options regarding the change.'
p422
g7
sS'An unnamed third party does receive unspecified information about you for marketing purposes. This applies to a user type outside of our label scheme. You can opt out by contacting the company for the collection or sharing of your information.'
p423
g5
sS'The site collects your cookies or tracking elements for service operations or security. Collection happens by some means outside of our label scheme.'
p424
g2
sS'The site collects your IP address or device IDs for a basic service or feature. Collection happens in an unspecified way.'
p425
g2
sS'The site collects your unspecified information for marketing purposes. Collection happens when you implicitly provide information in an unspecified way.'
p426
g2
sS'An unnamed third party does receive unspecified information about you for legal requirements.'
p427
g5
sS'Other users does see your unspecified personal information for a purpose outside of our label scheme.'
p428
g5
sS'When a change of an unspecified nature is made to the privacy policy, users receive no notification. Users have no options regarding the change.'
p429
g7
sS'A named third party does collect on the first party website or app your unspecified personal information for an additional (non-basic) service or feature.'
p430
g5
sS'An unspecified third party does not receive unspecified information about you for an unspecified purpose. The data is personally identifiable. You can opt in for data collection.'
p431
g5
sS'The site collects your cookies or tracking elements for analytics or research. Collection happens when you implicitly provide information on the website. You can configure your privacy with browser settings.'
p432
g2
sS'The site collects your unspecified information for an unspecified purpose. Collection happens on the website, and your data is identifiable.'
p433
g2
sS'An unspecified third party does not receive unspecified information about you for an unspecified purpose. The data is aggregated or anonymized.'
p434
g5
sS'When a change of an unspecified nature is made to the privacy policy, users are personally notified. Users have no options regarding the change.'
p435
g7
sS'The site collects your computer information for personalization or customization. Collection happens in an unspecified way.'
p436
g2
sS'The site collects your cookies or tracking elements for marketing purposes. Collection happens in an unspecified way, and your data is aggregated or anonymized.'
p437
g2
sS'An unspecified third party does receive unspecified information about you for service operations or security.'
p438
g5
sS'You can choose not to use a service or feature to avoid the use of cookies and tracking elements by an unspecified party for a basic service or feature.'
p439
g7
sS'A named third party does not receive unspecified information about you for targeted advertising. The data is personally identifiable.'
p440
g5
sS'A named third party does collect on the first party website or app your activities on the website or app for targeted advertising.'
p441
g5
sS'The site collects your generic personal information for an unspecified purpose. Collection happens when you implicitly provide information in an unspecified way.'
p442
g2
sS'The site collects your contact information for an additional (non-basic) service or feature. Collection happens when you explicitly provide information in an unspecified way. You can opt in for data collection for the collection of your information.'
p443
g2
sS'Another part of the company or institution does receive unspecified information about you for an unspecified purpose.'
p444
g5
sS'An unnamed third party does receive your unspecified personal information for an unspecified purpose. You can opt in for data collection.'
p445
g5
sS'A user can access, edit, or delete personal information in an unspecified manner, within the scope of unspecified user information.'
p446
g19
sS'The site collects your generic personal information for analytics or research. Collection happens when you explicitly provide information on the website, and your data is identifiable.'
p447
g2
sS"When a change of an unspecified nature is made to the privacy policy, users receive no notification. Users' choices regarding policy changes are not mentioned or are unclear."
p448
g7
sS'The site collects your unspecified information for an unspecified purpose. Collection happens when you implicitly provide information in an unspecified way, and your data is aggregated or anonymized.'
p449
g2
sS'When a change of an unspecified nature is made to the privacy policy, users are notified when visiting the website. Users have no options regarding the change.'
p450
g7
sS'Another part of the company or institution does receive unspecified information about you for service operations or security. The data is personally identifiable.'
p451
g5
sS'The site collects your website activities for analytics or research. Collection happens when you implicitly provide information on the website, and your data is aggregated or anonymized.'
p452
g2
sS'The site collects your generic personal information for an unspecified purpose. Collection happens when you explicitly provide information in an unspecified way, and your data is identifiable.'
p453
g2
sS'The site collects your generic personal information for marketing purposes. Collection happens by some means outside of our label scheme.'
p454
g2
sS'A named third party does receive information about you not covered by our label scheme for marketing purposes. You can configure your privacy using a method outside our label scheme.'
p455
g5
sS'The site collects an information type outside of our label scheme for an unspecified purpose. Collection happens when you explicitly provide information in an unspecified way for users with accounts.'
p456
g2
sS'You can opt out (via a link) from the use of contact information by an unspecified party for an unspecified purpose.'
p457
g7
sS'The site collects your demographic information for personalization or customization. Collection happens when you implicitly provide information by an unnamed service or third party, and your data is identifiable.'
p458
g2
sS'An unnamed third party does do something unspecified with your cookies or tracking elements for analytics or research.'
p459
g5
sS'An unnamed third party does collect on the first party website or app your unspecified personal information for marketing purposes. You can choose not to use the service or feature.'
p460
g5
sS'The site collects your generic personal information for an unspecified purpose. Collection happens when you explicitly provide information on the website.'
p461
g2
sS'You can make no specified choices about the use of unspecified information by the site, which uses it for legal requirements.'
p462
g7
sS'The site collects your contact information for a basic service or feature. Collection happens when you explicitly provide information by some means outside of our label scheme. You can opt in for data collection for the collection of your information.'
p463
g2
sS'A named third party does do something unspecified with your IP address or device IDs for targeted advertising.'
p464
g5
sS'The site collects your location information for an unspecified purpose. Collection happens when you implicitly provide information on the website.'
p465
g2
sS'An unnamed third party does do something unspecified with your computer information for targeted advertising.'
p466
g5
sS'An unnamed third party does track on the first party website or app your cookies or tracking elements for a basic service or feature.'
p467
g5
sS"When a change of an unspecified nature is made to the privacy policy, users are notified in an unspecified manner. Users' choices regarding policy changes are not mentioned or are unclear."
p468
g7
sS'The site collects your cookies or tracking elements for personalization or customization. Collection happens when you implicitly provide information on the website. You can configure your privacy with browser settings.'
p469
g2
sS'You can make no specified choices about the use of unspecified information by a third party, which collects or receives it for advertising.'
p470
g7
sS'You can use privacy configuration settings (in your browser or on your device) to control the use of cookies and tracking elements by the site, which collects it for a basic service or feature.'
p471
g7
sS'A user can delete their account (although the company or organization may continue to keep some data), within the scope of information explicitly provided by the user.'
p472
g19
sS'An unnamed third party does receive your unspecified personal information for targeted advertising. The data is personally identifiable. You can opt out by contacting the company for the use of your information.'
p473
g5
sS'You can opt out (via a link) from the use of contact information by a third party, which collects or receives it for an unspecified purpose.'
p474
g7
sS'Another part of the company or institution does receive your unspecified personal information for legal requirements. The data is personally identifiable.'
p475
g5
sS'The site collects your survey data for an unspecified purpose. Collection happens by other websites.'
p476
g2
sS'The site collects your website activities for an unspecified purpose. Collection happens when you explicitly provide information in an unspecified way.'
p477
g2
sS'The site collects your computer information for an unspecified purpose. Collection happens when you implicitly provide information on the website.'
p478
g2
sS'The site collects your IP address or device IDs for an additional (non-basic) service or feature. Collection happens in an unspecified way.'
p479
g2
sS'The site collects your computer information for service operations or security. Collection happens when you implicitly provide information in an unspecified way.'
p480
g2
sS'The site collects your location information for an unspecified purpose. Collection happens when you explicitly provide information in an unspecified way.'
p481
g2
sS"The site collects your cookies or tracking elements for an unspecified purpose. Collection happens when you implicitly provide information on the website, and your data's identifiability is not covered by our label scheme."
p482
g2
sS'Another part of the company or institution does see your unspecified personal information for service operations or security. The data is personally identifiable.'
p483
g5
sS'A user can access, edit, or delete personal information in a manner not covered by our label scheme, within the scope of information explicitly provided by the user.'
p484
g19
sS'A named third party does not collect on the first party website or app your location information for an unspecified purpose. You can opt in for data collection.'
p485
g5
sS'The site collects your financial information for an unspecified purpose. Collection happens on the website, and your data is aggregated or anonymized.'
p486
g2
sS'The site collects your generic personal information for an unspecified purpose. Collection happens when you explicitly provide information on the website. You can opt in for data collection for the collection of your information.'
p487
g2
sS'A named third party does do something unspecified with your survey data for an unspecified purpose.'
p488
g5
sS'You can use privacy configuration settings (in the website or app) to control the use of contact information by the site, which uses it for a purpose outside of our label scheme.'
p489
g7
sS'The site collects your IP address or device IDs for personalization or customization. Collection happens in an unspecified way.'
p490
g2
sS'The site collects your cookies or tracking elements for advertising. Collection happens when you implicitly provide information on other websites.'
p491
g2
sS'The site collects your contact information for a basic service or feature. Collection happens when you explicitly provide information in an unspecified way for users with accounts. You can opt in for data collection for the collection of your information.'
p492
g2
sS'You can use privacy configuration settings (in your browser or on your device) to control the use of location information by the site, which collects it for an additional (non-basic) service or feature.'
p493
g7
sS'A named third party does receive unspecified information about you for a basic service or feature.'
p494
g5
sS'The site collects your website activities for an unspecified purpose. Collection happens by an unnamed service or third party.'
p495
g2
sS'The site collects your cookies or tracking elements for personalization or customization. Collection happens when you implicitly provide information in an unspecified way.'
p496
g2
sS'The site collects your cookies or tracking elements for analytics or research. Collection happens on the website. You can configure your privacy with browser settings.'
p497
g2
sS'A named third party does receive your unspecified personal information for service operations or security. The data is personally identifiable.'
p498
g5
sS'An unnamed third party does receive your survey data for an unspecified purpose. The data is aggregated or anonymized.'
p499
g5
sS'You can use third party privacy settings to control the use of cookies and tracking elements by an unspecified party for an unspecified purpose.'
p500
g7
sS'The site collects your IP address or device IDs for an unspecified purpose. Collection happens when you implicitly provide information in an unspecified way.'
p501
g2
sS'The site collects your generic personal information for an unspecified purpose. Collection happens when you explicitly provide information in an unspecified way, and your data is identifiable. You can opt in for data collection.'
p502
g2
sS'You can opt out (by contacting the company) from the use of unspecified information by the site, which uses it for an unspecified purpose.'
p503
g7
sS'The site collects your financial information for an unspecified purpose. Collection happens in an unspecified way.'
p504
g2
sS'The site collects your website activities for analytics or research. Collection happens in an unspecified way.'
p505
g2
sS'The site collects your generic personal information for personalization or customization. Collection happens when you implicitly provide information in an unspecified way.'
p506
g2
sS'You can use privacy configuration settings (in your browser or on your device) to control the use of unspecified information by an unspecified party for an unspecified purpose.'
p507
g7
sS'An unspecified third party does not receive your unspecified personal information for an unspecified purpose. The data is personally identifiable.'
p508
g5
sS'The site collects an information type outside of our label scheme for an unspecified purpose. Collection happens by other websites.'
p509
g2
sS'You can use privacy configuration settings (in the website or app) to control the use of contact information by the site, which uses it for marketing purposes.'
p510
g7
sS'The site collects your website activities for marketing purposes. Collection happens by a named service or third party.'
p511
g2
sS'An unnamed third party does track on the first party website or app your activities on the website or app for targeted advertising.'
p512
g5
sS'The site collects your cookies or tracking elements for advertising. Collection happens by some means outside of our label scheme.'
p513
g2
sS'The site collects your generic personal information for personalization or customization. Collection happens when you implicitly provide information on the website, and your data is identifiable.'
p514
g2
sS'An unnamed third party does receive your unspecified personal information for targeted advertising. The data is personally identifiable.'
p515
g5
sS'An unnamed third party does receive your cookies or tracking elements for analytics or research.'
p516
g5
sS'The site collects your IP address or device IDs for service operations or security. Collection happens when you implicitly provide information in an unspecified way.'
p517
g2
sS'The site collects your cookies or tracking elements for personalization or customization. Collection happens in an unspecified way.'
p518
g2
sS"A user's contact information is retained for a limited (but unspecified) period of time to perform a requested service, and then it is deleted.."
p519
g17
sS'The site collects your unspecified information for an unspecified purpose. Collection happens by an unnamed service or third party.'
p520
g2
sS'The site collects your demographic information for an unspecified purpose. Collection happens in an unspecified way.'
p521
g2
sS'When a change is made to the privacy policy that significantly affects data practices, users are notified in a manner outside of our label scheme. Users have no options regarding the change.'
p522
g7
sS'A named third party does track on the first party website or app your cookies or tracking elements for targeted advertising. You can configure your privacy with third-party user settings.'
p523
g5
sS'The site collects your unspecified information for a basic service or feature. Collection happens in an unspecified way.'
p524
g2
sS'The site collects your location information for advertising. Collection happens when you implicitly provide information on the website.'
p525
g2
sS'An unnamed third party does receive unspecified information about you for an additional (non-basic) service or feature. You can opt in for data collection.'
p526
g5
sS'An unnamed third party does not receive your contact information for an additional (non-basic) service or feature.'
p527
g5
sS'The site collects your generic personal information for marketing purposes. Collection happens by an unnamed service or third party, and your data is identifiable.'
p528
g2
sS'A named third party does track on the first party website or app your activities on the website or app for targeted advertising.'
p529
g5
sS'The site collects your generic personal information for a basic service or feature. Collection happens when you explicitly provide information in an unspecified way. You can opt in for data collection for the collection of your information.'
p530
g2
sS'You can opt in for the use of contact information by a third party, which collects or receives it for an unspecified purpose.'
p531
g7
sS'The site collects your cookies or tracking elements for a purpose outside of our label scheme. Collection happens when you implicitly provide information on the website, and your data is identifiable.'
p532
g2
sS'The site collects your generic personal information for marketing purposes. Collection happens on the website.'
p533
g2
sS'The site collects your generic personal information for an additional (non-basic) service or feature. Collection happens on the website.'
p534
g2
sS'The site collects your location information for advertising. Collection happens when you explicitly provide information in an unspecified way.'
p535
g2
sS'A named third party does receive your unspecified personal information for mergers or acquisitions. The data is personally identifiable.'
p536
g5
sS'You can use third party privacy settings to control the use of unspecified information by an unspecified party for advertising.'
p537
g7
sS'A user can delete their account (although the company or organization may continue to keep some data), within the scope of unspecified user information.'
p538
g19
sS'The site collects your generic personal information for advertising. Collection happens when you explicitly provide information in an unspecified way.'
p539
g2
sS'The site collects your unspecified information for a basic service or feature. Collection happens in an unspecified way, and your data is identifiable.'
p540
g2
sS'A named third party does collect on the first party website or app your cookies or tracking elements for an additional (non-basic) service or feature.'
p541
g5
sS'A named third party does receive your unspecified personal information for an unspecified purpose. You can choose not to use the service or feature.'
p542
g5
sS'Another part of the company or institution does not do something outside of our label scheme with your unspecified personal information for a basic service or feature. The data is personally identifiable.'
p543
g5
sS'You can make no specified choices about the use of unspecified information by the site, which uses it for a basic service or feature.'
p544
g7
sS'The site collects your survey data for an unspecified purpose. Collection happens when you explicitly provide information by some means outside of our label scheme.'
p545
g2
sS'The site collects your demographic information for a basic service or feature. Collection happens when you explicitly provide information in an unspecified way.'
p546
g2
sS'An unnamed third party does not receive your unspecified personal information for an unspecified purpose.'
p547
g5
sS'The site collects your generic personal information for service operations or security. Collection happens on the website.'
p548
g2
sS'The site collects your contact information for a basic service or feature. Collection happens in an unspecified way.'
p549
g2
sS'The site does not collect your unspecified information for an unspecified purpose. Collection happens when you explicitly provide information in an unspecified way, and your data is identifiable.'
p550
g2
sS'An unnamed third party does collect on the first party website or app your computer information for an unspecified purpose.'
p551
g5
sS'The site collects your contact information for an additional (non-basic) service or feature. Collection happens by some means outside of our label scheme.'
p552
g2
sS'An unnamed third party does track on the first party website or app your cookies or tracking elements for an unspecified purpose.'
p553
g5
sS'The site collects your cookies or tracking elements for analytics or research. Collection happens on the website.'
p554
g2
sS'A named third party does collect on the first party website or app your unspecified personal information for an unspecified purpose.'
p555
g5
sS'The site collects your website activities for an unspecified purpose. Collection happens when you implicitly provide information in an unspecified way.'
p556
g2
sS'An unnamed third party does receive your unspecified personal information for mergers or acquisitions.'
p557
g5
sS'The site collects your contact information for an unspecified purpose. Collection happens when you explicitly provide information in an unspecified way for users with accounts.'
p558
g2
sS'You can opt out (via a link) from the use of unspecified information by the site, which uses it for marketing purposes.'
p559
g7
sS'The site collects your computer information for an unspecified purpose. Collection happens on the website, and your data is aggregated or anonymized.'
p560
g2
sS'The site collects your generic personal information for an additional (non-basic) service or feature. Collection happens when you explicitly provide information in an unspecified way, and your data is identifiable. You can opt in for data collection for the collection of your information.'
p561
g2
sS'A user with an account can opt out (by contacting the company) from the use of contact information by the site, which uses it for marketing purposes.'
p562
g7
sS'An unnamed third party does receive your unspecified personal information for an unspecified purpose. The data is personally identifiable.'
p563
g5
sS'The site collects your generic personal information for a basic service or feature. Collection happens when you explicitly provide information on the website for users with accounts, and your data is identifiable.'
p564
g2
sS'The site collects your generic personal information for a basic service or feature. Collection happens when you explicitly provide information in an unspecified way, and your data is identifiable.'
p565
g2
sS'The site collects your unspecified information for personalization or customization. Collection happens when you implicitly provide information in an unspecified way for users with accounts.'
p566
g2
sS'The site does not collect your generic personal information for an unspecified purpose. Collection happens in an unspecified way.'
p567
g2
sS'The site collects your user profile for personalization or customization. Collection happens when you implicitly provide information on the website for users with accounts, and your data is identifiable.'
p568
g2
sS'You can make a choice about your privacy not described by our label scheme the use of unspecified information by a third party, which collects or receives it for an unspecified purpose.'
p569
g7
sS'A named third party does do something unspecified with your unspecified personal information for an unspecified purpose. The data is personally identifiable.'
p570
g5
sS'The site collects your computer information for analytics or research. Collection happens on the website.'
p571
g2
sS'An unnamed third party does receive unspecified information about you for an unspecified purpose. The data is personally identifiable.'
p572
g5
sS'The site collects your demographic information for an unspecified purpose. Collection happens in an unspecified way, and your data is aggregated or anonymized.'
p573
g2
sS'The site collects your website activities for marketing purposes. Collection happens when you implicitly provide information by an unnamed service or third party.'
p574
g2
sS'You can opt out (by contacting the company) from the use of generic personal information by the site, which uses it for an unspecified purpose.'
p575
g7
sS'The site collects your cookies or tracking elements for personalization or customization. Collection happens when you implicitly provide information on the website.'
p576
g2
sS'An unnamed third party does track on the first party website or app unspecified information about you for targeted advertising.'
p577
g5
sS'A user can edit their information, within the scope of unspecified user information.'
p578
g19
sS'The site collects your website activities for an unspecified purpose. Collection happens when you implicitly provide information on the website, and your data is aggregated or anonymized.'
p579
g2
sS'The site collects your generic personal information for an unspecified purpose. Collection happens when you implicitly provide information in an unspecified way. You can choose not to use the service or feature for the collection and use of your information.'
p580
g2
sS'The site collects your cookies or tracking elements for an unspecified purpose. Collection happens when you explicitly provide information on the website. You can configure your privacy with browser settings.'
p581
g2
sS'An unnamed third party does track on the first party website or app your cookies or tracking elements for an unspecified purpose. The data is aggregated or anonymized.'
p582
g5
sS'The site does not collect your location information for an unspecified purpose. Collection happens when you explicitly provide information on the website.'
p583
g2
sS'The public does see your user profile for marketing purposes. This applies to users with accounts. You can opt in for data collection.'
p584
g5
sS'The site does not collect your contact information for an unspecified purpose. Collection happens when you explicitly provide information in an unspecified way. You can opt in for data collection for the collection of your information.'
p585
g2
sS'The site collects your website activities for an unspecified purpose. Collection happens by other websites.'
p586
g2
sS'The site collects your generic personal information for an additional (non-basic) service or feature. Collection happens on the website. You can choose not to use the service or feature.'
p587
g2
sS'The public does do something outside of our label scheme with unspecified information about you for an unspecified purpose. You can opt in for data collection for the collection or sharing and use of your information.'
p588
g5
sS'An unnamed third party does not receive your contact information for an unspecified purpose. This applies to users without accounts.'
p589
g5
sS'The site collects your generic personal information for analytics or research. Collection happens in an unspecified way.'
p590
g2
sS'You can opt out (by contacting the company) from the use of unspecified information by a third party, which uses it for marketing purposes.'
p591
g7
sS'The site collects your unspecified information for advertising. Collection happens when you implicitly provide information by some means outside of our label scheme.'
p592
g2
sS"When a change of an unspecified nature is made to the privacy policy, the policy date is updated or information about the change is posted as part of the policy. Users' choices regarding policy changes are not mentioned or are unclear."
p593
g7
sS'The site collects your website activities for an unspecified purpose. Collection happens by some means outside of our label scheme.'
p594
g2
sS'An unspecified third party does receive your unspecified personal information for legal requirements.'
p595
g5
sS'An unnamed third party does receive your cookies or tracking elements for service operations or security.'
p596
g5
sS'The site collects your website activities for advertising. Collection happens in an unspecified way.'
p597
g2
sS'The public does see unspecified information about you for marketing purposes. This applies to users with accounts. You can opt in for data collection.'
p598
g5
sS'The site collects your cookies or tracking elements for an unspecified purpose. Collection happens in an unspecified way.'
p599
g2
sS'The site collects your generic personal information for marketing purposes. Collection happens when you implicitly provide information in an unspecified way.'
p600
g2
sS'The site collects your unspecified information for analytics or research. Collection happens when you implicitly provide information by some means outside of our label scheme.'
p601
g2
sS'The site collects your website activities for advertising. Collection happens by a named service or third party, and your data is aggregated or anonymized.'
p602
g2
sS'A named third party does track on the first party website or app your IP address or device IDs for targeted advertising.'
p603
g5
sS'An unnamed third party does do something unspecified with your cookies or tracking elements for an unspecified purpose.'
p604
g5
sS'An unnamed third party does receive your unspecified personal information for an unspecified purpose. The data is aggregated or anonymized.'
p605
g5
sS'An unnamed third party does receive your unspecified personal information for analytics or research. The data is aggregated or anonymized.'
p606
g5
sS'An unnamed third party does receive unspecified information about you for an unspecified purpose. This applies to a user type outside of our label scheme. You can opt in for data collection for the collection or sharing of your information.'
p607
g5
sS'Users with accounts can deactivate their account, within the scope of information explicitly provided by the user.'
p608
g19
sS'The site collects your demographic information for an unspecified purpose. Collection happens on the website, and your data is identifiable.'
p609
g2
sS'The site collects your location information for an unspecified purpose. Collection happens when you implicitly provide information on the website, and your data is aggregated or anonymized.'
p610
g2
sS'The site collects your website activities for analytics or research. Collection happens on the website.'
p611
g2
sS'A named third party does not collect on the first party website or app your unspecified personal information for an unspecified purpose. The data is personally identifiable. You can opt in for data collection.'
p612
g5
sS'A named third party does receive your unspecified personal information for targeted advertising.'
p613
g5
sS'The site collects your cookies or tracking elements for an additional (non-basic) service or feature. Collection happens by a named service or third party.'
p614
g2
sS'The site collects your cookies or tracking elements for an unspecified purpose. Collection happens when you implicitly provide information on the website.'
p615
g2
sS'The site collects your user profile for a basic service or feature. Collection happens in an unspecified way.'
p616
g2
sS'The site collects your survey data for analytics or research. Collection happens on the website.'
p617
g2
sS'An unnamed third party does track on the first party website or app your computer information for analytics or research.'
p618
g5
sS'When a change of a variety outside of our label scheme is made to the privacy policy, users are notified in a manner outside of our label scheme. Users must agree before their data is treated according to the new privacy policy.'
p619
g7
sS'An unnamed third party does not do something unspecified with your unspecified personal information for an unspecified purpose. You can opt in for data collection.'
p620
g5
sS'You can opt out (via a link) from the use of contact information by the site, which uses it for a purpose outside of our label scheme.'
p621
g7
sS'The site collects your generic personal information for advertising. Collection happens in an unspecified way.'
p622
g2
sS'The site collects your unspecified information for marketing purposes. Collection happens by an unnamed service or third party.'
p623
g2
sS'Other users does receive your user profile for an unspecified purpose.'
p624
g5
sS'A user can view their information, within the scope of information the company has learned about the user.'
p625
g19
sS'The site collects your unspecified information for advertising. Collection happens in an unspecified way.'
p626
g2
sS'The site collects your unspecified information for analytics or research. Collection happens in an unspecified way.'
p627
g2
sS'The site collects an information type outside of our label scheme for an unspecified purpose. Collection happens by some means outside of our label scheme.'
p628
g2
sS'A named third party does receive unspecified information about you for an unspecified purpose. This applies to a user type outside of our label scheme. You can opt in for data collection for the collection or sharing of your information.'
p629
g5
sS'The site collects your location information for advertising. Collection happens when you explicitly provide information by some means outside of our label scheme.'
p630
g2
sS'An unnamed third party does do something outside of our label scheme with your computer information for analytics or research.'
p631
g5
sS'A named third party does receive unspecified information about you for targeted advertising.'
p632
g5
sS'The site collects your computer information for an unspecified purpose. Collection happens when you implicitly provide information on the website, and your data is aggregated or anonymized.'
p633
g2
sS'The site collects your IP address or device IDs for advertising. Collection happens when you implicitly provide information on the website.'
p634
g2
sS'The site collects your IP address or device IDs for an additional (non-basic) service or feature. Collection happens by a named service or third party.'
p635
g2
sS'The site collects your contact information for a basic service or feature. Collection happens when you explicitly provide information on the website, and your data is identifiable. You can opt out using the provided link for the use of your information.'
p636
g2
sS'The site collects your demographic information for analytics or research. Collection happens on the website.'
p637
g2
sS'An unnamed third party does do something outside of our label scheme with unspecified information about you for mergers or acquisitions.'
p638
g5
sS'The site collects your computer information for an unspecified purpose. Collection happens when you implicitly provide information in an unspecified way, and your data is aggregated or anonymized.'
p639
g2
sS'An unnamed third party does receive your activities on the website or app for an unspecified purpose.'
p640
g5
sS'The site collects your website activities for personalization or customization. Collection happens when you implicitly provide information on the website.'
p641
g2
sS'The public does see your user profile for a purpose outside of our label scheme. This applies to users with accounts. You can opt in for data collection.'
p642
g5
sS'The site collects your generic personal information for analytics or research. Collection happens when you explicitly provide information in an unspecified way for users with accounts.'
p643
g2
sS'The site collects your cookies or tracking elements for an unspecified purpose. Collection happens by other websites.'
p644
g2
sS'The site collects your cookies or tracking elements for an unspecified purpose. Collection happens by some means outside of our label scheme.'
p645
g2
sS'The site collects your cookies or tracking elements for a basic service or feature. Collection happens on the website. You can configure your privacy with third-party user settings.'
p646
g2
sS'A user can access, edit, or delete personal information in a manner not covered by our label scheme, within the scope of unspecified user information.'
p647
g19
sS'An unnamed third party does receive your contact information for marketing purposes. This applies to a user type outside of our label scheme. You can opt out by contacting the company for the collection or sharing of your information.'
p648
g5
sS'A named third party does do something outside of our label scheme with your IP address or device IDs for targeted advertising. You can configure your privacy with third-party user settings.'
p649
g5
sS'The site collects your location information for an unspecified purpose. Collection happens when you implicitly provide information in an unspecified way, and your data is aggregated or anonymized.'
p650
g2
sS'The site collects your contact information for service operations or security. Collection happens on the website, and your data is identifiable.'
p651
g2
sS'An unnamed third party does collect on the first party website or app your computer information for targeted advertising.'
p652
g5
sS'An unnamed third party does receive your unspecified personal information for a basic service or feature.'
p653
g5
sS'The site collects your generic personal information for an additional (non-basic) service or feature. Collection happens when you explicitly provide information on the website, and your data is identifiable.'
p654
g2
sS"A user's unspecified information is retained for an unspecified duration to perform a requested service, and then it is deleted.."
p655
g17
sS'The site collects your financial information for a basic service or feature. Collection happens when you explicitly provide information in an unspecified way, and your data is identifiable.'
p656
g2
sS'The site collects your unspecified information for an unspecified purpose. Collection happens when you explicitly provide information in an unspecified way for users with accounts, and your data is aggregated or anonymized. You can opt in for data collection for the collection of your information.'
p657
g2
sS'The site collects your cookies or tracking elements for analytics or research. Collection happens in an unspecified way. You can configure your privacy with browser settings.'
p658
g2
sS'The site collects your survey data for an unspecified purpose. Collection happens in an unspecified way.'
p659
g2
sS'A user with an account can make no specified choices about the use of information of a type not covered by our label scheme by a third party, which collects or receives it for an additional (non-basic) service or feature.'
p660
g7
sS'An unnamed third party does receive unspecified information about you for targeted advertising.'
p661
g5
sS'An unnamed third party does receive your financial information for a basic service or feature. The data is personally identifiable. You can choose not to use the service or feature.'
p662
g5
sS'The site collects your unspecified information for advertising. Collection happens on other websites.'
p663
g2
sS"When a change is made to the privacy policy that significantly affects data practices, users are personally notified. Users' choices regarding policy changes are not mentioned or are unclear."
p664
g7
sS'An unnamed third party does receive your cookies or tracking elements for an unspecified purpose.'
p665
g5
sS'You can opt out (via a link) from the use of unspecified information by a third party, which collects or receives it for advertising.'
p666
g7
sS'A user can edit their information, within the scope of information explicitly provided by the user.'
p667
g19
sS'An unnamed third party does collect on the first party website or app your location information for targeted advertising.'
p668
g5
sS'An unnamed third party does do something outside of our label scheme with your location information for analytics or research.'
p669
g5
sS'Another part of the company or institution does receive your unspecified personal information for an unspecified purpose.'
p670
g5
sS'The policy makes a statement about how data from children is treated.'
p671
g19
sS'The site collects your generic personal information for a basic service or feature. Collection happens when you explicitly provide information in an unspecified way for users with accounts. You can opt in for data collection for the collection of your information.'
p672
g2
sS'The site collects your user profile for an unspecified purpose. Collection happens by some means outside of our label scheme.'
p673
g2
sS'You can opt in for the use of information of a type not covered by our label scheme by a third party, which collects or receives it for an unspecified purpose.'
p674
g7
sS'An unnamed third party does not receive your survey data for analytics or research.'
p675
g5
sS'The site collects your unspecified information for marketing purposes. Collection happens by an unnamed service or third party, and your data is identifiable.'
p676
g2
sS'The site collects your website activities for service operations or security. Collection happens when you implicitly provide information in an unspecified way.'
p677
g2
sS'The site collects your generic personal information for an unspecified purpose. Collection happens when you implicitly provide information in an unspecified way. You can opt in for data collection.'
p678
g2
sS'You can opt in for the use of generic personal information by the site, which collects it for an unspecified purpose.'
p679
g7
sS'An unnamed third party does receive unspecified information about you for a basic service or feature. The data is personally identifiable.'
p680
g5
sS'The site collects your generic personal information for a basic service or feature. Collection happens when you implicitly provide information in an unspecified way.'
p681
g2
sS'The site collects your unspecified information for a basic service or feature. Collection happens on the website.'
p682
g2
sS'The site collects your cookies or tracking elements for analytics or research. Collection happens in an unspecified way.'
p683
g2
sS'An unspecified third party does not receive unspecified information about you for an unspecified purpose. The data is personally identifiable.'
p684
g5
sS'An unnamed third party does receive your unspecified personal information for analytics or research. The data is personally identifiable.'
p685
g5
sS'The public does receive your unspecified personal information for an additional (non-basic) service or feature. You can opt in for data collection.'
p686
g5
sS'The site collects your cookies or tracking elements for an unspecified purpose. Collection happens when you implicitly provide information in an unspecified way. You can configure your privacy with browser settings.'
p687
g2
sS'An unnamed third party does track on the first party website or app your cookies or tracking elements for personalization or customization.'
p688
g5
sS"The site collects your demographic information for an unspecified purpose. Collection happens when you explicitly provide information in an unspecified way, and your data's identifiability is not covered by our label scheme."
p689
g2
sS'You can opt out (via a link) from the use of unspecified information by an unspecified party for advertising.'
p690
g7
sS'The site collects your website activities for marketing purposes. Collection happens when you implicitly provide information in an unspecified way.'
p691
g2
sS'A named third party does do something outside of our label scheme with your cookies or tracking elements for targeted advertising. You can configure your privacy with third-party user settings.'
p692
g5
sS'The site collects your unspecified information for an unspecified purpose. Collection happens when you explicitly provide information on the website. You can opt in for data collection.'
p693
g2
sS'An unnamed third party does receive your unspecified personal information for marketing purposes.'
p694
g5
sS'The site collects your website activities for advertising. Collection happens when you implicitly provide information in an unspecified way.'
p695
g2
sS'An unnamed third party does do something outside of our label scheme with your activities on the website or app for analytics or research.'
p696
g5
sS'Other users does receive your activities on the website or app for an unspecified purpose. The data is personally identifiable. You can opt in for data collection.'
p697
g5
sS'The site collects your generic personal information for a basic service or feature. Collection happens in an unspecified way.'
p698
g2
sS'A named third party does track on the first party website or app your location information for targeted advertising.'
p699
g5
sS'The site collects your computer information for a basic service or feature. Collection happens in an unspecified way.'
p700
g2
sS'The site collects your unspecified information for personalization or customization. Collection happens when you implicitly provide information on the website, and your data is aggregated or anonymized.'
p701
g2
sS'You can make no specified choices about the use of unspecified information by an unspecified party for an unspecified purpose.'
p702
g7
sS"A user's contact information is retained for an unspecified duration to perform a requested service, and then it is deleted.."
p703
g17
sS'You can opt out (via a link) from the use of contact information by the site, which uses it for an additional (non-basic) service or feature.'
p704
g7
sS'The site collects your cookies or tracking elements for marketing purposes. Collection happens when you implicitly provide information on other websites.'
p705
g2
sS'The site collects your IP address or device IDs for an unspecified purpose. Collection happens in the mobile app.'
p706
g2
sS'An unnamed third party does track on the first party website or app your cookies or tracking elements for an unspecified purpose. You can opt out using the provided link.'
p707
g5
sS'A named third party does receive your financial information for an unspecified purpose.'
p708
g5
sS'The site collects your unspecified information for advertising. Collection happens on the website.'
p709
g2
sS'The site collects your contact information for an additional (non-basic) service or feature. Collection happens when you explicitly provide information in an unspecified way for users without accounts. You can opt in for data collection for the collection of your information.'
p710
g2
sS"When a change of an unspecified nature is made to the privacy policy, users are personally notified. Users' choices regarding policy changes are not mentioned or are unclear."
p711
g7
sS'An unspecified third party does receive unspecified information about you for mergers or acquisitions. The data is personally identifiable.'
p712
g5
sS"A user's unspecified information is retained for a limited (but unspecified) period of time to perform a requested service, and then it is deleted.."
p713
g17
sS'The site collects your generic personal information for an unspecified purpose. Collection happens when you implicitly provide information in an unspecified way. You can choose not to use the service or feature.'
p714
g2
sS'Users with accounts can access, edit, or delete personal information in an unspecified manner, within the scope of transactional data (e.g., online activity, purchases).'
p715
g19
sS'The site collects your website activities for an unspecified purpose. Collection happens when you implicitly provide information on the website.'
p716
g2
sS'The site collects your unspecified information for an additional (non-basic) service or feature. Collection happens on the website.'
p717
g2
sS'A user with an account can opt in for the use of user profile by a third party, which collects or receives it for an additional (non-basic) service or feature.'
p718
g7
sS'The site collects an information type outside of our label scheme for personalization or customization. Collection happens when you explicitly provide information on the website, and your data is identifiable.'
p719
g2
sS'The site collects your cookies or tracking elements for an unspecified purpose. Collection happens when you implicitly provide information in an unspecified way. You can opt out using the provided link.'
p720
g2
sS'Other users does do something outside of our label scheme with unspecified information about you for an additional (non-basic) service or feature.'
p721
g5
sS'When a change of an unspecified nature is made to the privacy policy, users are notified when visiting the website. Users can participate in a process to influence the change.'
p722
g7
sS'A named third party does track on the first party website or app your computer information for targeted advertising.'
p723
g5
sS'You can opt out (via a link) from the use of unique personal identifier by a third party, which collects or receives it for an unspecified purpose.'
p724
g7
sS'The site collects your contact information for personalization or customization. Collection happens when you implicitly provide information by an unnamed service or third party, and your data is identifiable.'
p725
g2
sS'The site collects your generic personal information for marketing purposes. Collection happens when you implicitly provide information by an unnamed service or third party, and your data is identifiable.'
p726
g2
sS'An unnamed third party does do something unspecified with your cookies or tracking elements for targeted advertising. You can make a choice about the use of your information.'
p727
g5
sS'An unspecified third party does receive your unspecified personal information for a purpose outside of our label scheme.'
p728
g5
sS'An unnamed third party does receive unspecified information about you for service operations or security.'
p729
g5
sS'A third party outside of our label scheme does receive unspecified information about you for mergers or acquisitions.'
p730
g5
sS'A named third party does not collect on the first party website or app your contact information for an unspecified purpose. You can opt in for data collection.'
p731
g5
sS'You can opt out (by contacting the company) from the use of generic personal information by a third party, which collects or receives it for marketing purposes.'
p732
g7
sS'A named third party does track on the first party website or app your cookies or tracking elements for targeted advertising. You can configure your privacy with third-party user settings for the use of your information.'
p733
g5
sS'An unnamed third party does track on the first party website or app your cookies or tracking elements for targeted advertising.'
p734
g5
sS'You can opt in for the use of generic personal information by the site, which uses it for an unspecified purpose.'
p735
g7
sS'The site collects your website activities for a basic service or feature. Collection happens in an unspecified way, and your data is aggregated or anonymized.'
p736
g2
sS'The site collects an information type outside of our label scheme for service operations or security. Collection happens in an unspecified way.'
p737
g2
sS'The site collects your demographic information for marketing purposes. Collection happens when you implicitly provide information by an unnamed service or third party.'
p738
g2
sS'An unspecified third party does receive unspecified information about you for an unspecified purpose. The data is aggregated or anonymized.'
p739
g5
sS'You can opt out (via a link) from the use of unspecified information by a third party, which collects or receives it for an unspecified purpose.'
p740
g7
sS'Data is accessible to employees/third parties on a need-to-know basis.'
p741
g17
sS'The site collects your demographic information for a basic service or feature. Collection happens when you explicitly provide information in an unspecified way for users with accounts. You can opt in for data collection for the collection of your information.'
p742
g2
sS'A named third party does not track on the first party website or app your unspecified personal information for an unspecified purpose.'
p743
g5
sS'An unnamed third party does track on the first party website or app your activities on the website or app for a basic service or feature.'
p744
g5
sS'When a change is made to the privacy policy that significantly affects data practices, users are personally notified. Users have no options regarding the change.'
p745
g7
sS'A user can delete their account (with the company or organization removing all data), within the scope of information the company has learned about the user.'
p746
g19
sS'An unnamed third party does receive your IP address or device IDs for an unspecified purpose.'
p747
g5
sS'An unnamed third party does not receive your unspecified personal information for targeted advertising.'
p748
g5
sS'The site collects your unspecified information for analytics or research. Collection happens when you implicitly provide information in an unspecified way.'
p749
g2
sS'The site collects your cookies or tracking elements for an unspecified purpose. Collection happens when you implicitly provide information in an unspecified way, and your data is aggregated or anonymized.'
p750
g2
sS'The site collects your generic personal information for marketing purposes. Collection happens in an unspecified way. You can make a choice about the use of your information.'
p751
g2
sS'The site collects your generic personal information for advertising. Collection happens when you implicitly provide information in an unspecified way.'
p752
g2
sS"When a minor change is made to the privacy policy that does not significantly affect data practices, the policy date is updated or information about the change is posted as part of the policy. Users' choices regarding policy changes are not mentioned or are unclear."
p753
g7
sS'The site collects your social media data for an unspecified purpose. Collection happens when you implicitly provide information by other websites.'
p754
g2
sS'The site collects your generic personal information for an unspecified purpose. Collection happens in an unspecified way. You can opt in for data collection for the use of your information.'
p755
g2
sS'The site collects your cookies or tracking elements for a basic service or feature. Collection happens when you implicitly provide information in an unspecified way.'
p756
g2
sS'A user can access, edit, or delete personal information in an unspecified manner, within the scope of transactional data (e.g., online activity, purchases).'
p757
g19
sS'The site collects your generic personal information for legal requirements. Collection happens on the website, and your data is identifiable.'
p758
g2
sS'The site collects your unspecified information for a purpose outside of our label scheme. Collection happens by an unnamed service or third party.'
p759
g2
sS'The site collects your contact information for an unspecified purpose. Collection happens on the website, and your data is identifiable.'
p760
g2
sS'The site collects your user profile for advertising. Collection happens when you explicitly provide information by some means outside of our label scheme.'
p761
g2
sS'The site collects your computer information for an unspecified purpose. Collection happens on the website.'
p762
g2
sS'The site collects your generic personal information for personalization or customization. Collection happens in an unspecified way. You can make a choice about the use of your information.'
p763
g2
sS'The site collects your cookies or tracking elements for a basic service or feature. Collection happens in an unspecified way, and your data is aggregated or anonymized.'
p764
g2
sS'You can choose not to use a service or feature to avoid the use of unspecified information by the site, which collects it for a basic service or feature.'
p765
g7
sS'Other users does receive your activities on the website or app for an additional (non-basic) service or feature. You can opt in for data collection.'
p766
g5
sS'A named third party does receive your unspecified personal information for targeted advertising. The data is personally identifiable.'
p767
g5
sS'The site collects your demographic information for a basic service or feature. Collection happens in an unspecified way, and your data is aggregated or anonymized.'
p768
g2
sS'The site collects your IP address or device IDs for an unspecified purpose. Collection happens when you implicitly provide information on the website, and your data is aggregated or anonymized.'
p769
g2
sS'You can opt out (via a link) from the use of contact information by the site, which uses it for marketing purposes.'
p770
g7
sS'An unnamed third party does receive your user profile for targeted advertising. The data is aggregated or anonymized.'
p771
g5
sS'The site collects your demographic information for a basic service or feature. Collection happens when you explicitly provide information on the website, and your data is identifiable.'
p772
g2
sS'The site does not collect your contact information for an unspecified purpose. Collection happens when you explicitly provide information on the website.'
p773
g2
sS'The site collects your demographic information for a basic service or feature. Collection happens on the website for users with accounts. You can opt in for data collection.'
p774
g2
sS"When a change is made to the privacy policy that significantly affects data practices, users are notified when visiting the website. Users' choices regarding policy changes are not mentioned or are unclear."
p775
g7
sS'The site collects your generic personal information for an unspecified purpose. Collection happens when you explicitly provide information in an unspecified way for users with accounts.'
p776
g2
sS'The site collects your demographic information for a basic service or feature. Collection happens on the website.'
p777
g2
sS'An unnamed third party does collect on the first party website or app your activities on the website or app for targeted advertising.'
p778
g5
sS'The site collects your unspecified information for an unspecified purpose. Collection happens when you explicitly provide information in an unspecified way.'
p779
g2
sS'The site collects your unspecified information for an additional (non-basic) service or feature. Collection happens in an unspecified way, and your data is identifiable.'
p780
g2
sS'The site collects your location information for an unspecified purpose. Collection happens when you implicitly provide information in an unspecified way.'
p781
g2
sS'The site collects an information type outside of our label scheme for analytics or research. Collection happens in an unspecified way for a user type outside of our label scheme. You can choose not to use the service or feature.'
p782
g2
sS'The site collects your generic personal information for marketing purposes. Collection happens in an unspecified way. You can choose not to use the service or feature.'
p783
g2
sS'You can opt out (by contacting the company) from the use of unspecified information by the site, which uses it for marketing purposes.'
p784
g7
sS'You can make no specified choices about the use of contact information by the site, which uses it for marketing purposes.'
p785
g7
sS'You can make no specified choices about the use of contact information by the site, which uses it for a purpose outside of our label scheme.'
p786
g7
sS'An unnamed third party does not do something outside of our label scheme with your unspecified personal information for a basic service or feature. The data is personally identifiable.'
p787
g5
sS'A named third party does track on the first party website or app your cookies or tracking elements for targeted advertising.'
p788
g5
sS'The site collects your generic personal information for a basic service or feature. Collection happens by some means outside of our label scheme.'
p789
g2
sS'An unnamed third party does receive your unspecified personal information for service operations or security.'
p790
g5
sS'The site collects your website activities for analytics or research. Collection happens by some means outside of our label scheme.'
p791
g2
sS'The site collects your cookies or tracking elements for personalization or customization. Collection happens when you implicitly provide information on the website for users with accounts, and your data is identifiable.'
p792
g2
sS'The site collects your generic personal information for marketing purposes. Collection happens when you explicitly provide information in an unspecified way for users with accounts.'
p793
g2
sS'An unnamed third party does receive your contact information for targeted advertising. The data is personally identifiable. You can opt out by contacting the company.'
p794
g5
sS'The site collects your contact information for an unspecified purpose. Collection happens when you explicitly provide information on the website, and your data is identifiable.'
p795
g2
sS'An unnamed third party does collect on the first party website or app your unspecified personal information for an unspecified purpose. The data is personally identifiable.'
p796
g5
sS'The site collects your website activities for an unspecified purpose. Collection happens in an unspecified way, and your data is aggregated or anonymized.'
p797
g2
sS'The site collects your generic personal information for an unspecified purpose. Collection happens when you explicitly provide information on the website, and your data is identifiable.'
p798
g2
sS'The site collects your generic personal information for personalization or customization. Collection happens when you explicitly provide information in an unspecified way, and your data is identifiable.'
p799
g2
sS'A user with an account can opt out (by contacting the company) from the use of contact information by a third party, which collects or receives it for marketing purposes.'
p800
g7
sS'An unnamed third party does receive your unspecified personal information for a basic service or feature. The data is personally identifiable.'
p801
g5
sS'An unnamed third party does receive your cookies or tracking elements for targeted advertising.'
p802
g5
sS'The site collects your IP address or device IDs for a basic service or feature. Collection happens in the mobile app.'
p803
g2
sS"A user's unspecified information is retained for an unspecified duration to meet legal or law enforcement requirements, and then it is deleted.."
p804
g17
sS'You can choose not to use a service or feature to avoid the use of generic personal information by the site, which collects it for an unspecified purpose.'
p805
g7
sS'An unnamed third party does not receive your contact information for an unspecified purpose. You can opt in for data collection.'
p806
g5
sS'The public does see unspecified information about you for an unspecified purpose. You can opt in for data collection for the use of your information.'
p807
g5
sS'An unnamed third party does not receive your contact information for an unspecified purpose.'
p808
g5
sS'The site collects your contact information for a purpose outside of our label scheme. Collection happens by some means outside of our label scheme. You can configure your privacy using a method outside our label scheme for the use of your information.'
p809
g2
sS'Users with accounts can edit their information, within the scope of information the company has learned about the user.'
p810
g19
sS'The site collects your social media data for an additional (non-basic) service or feature. Collection happens by an unnamed service or third party.'
p811
g2
sS'The policy makes a statement about data from a demographic outside of our label scheme.'
p812
g19
s.