(dp0
S'The site collects your IP address or device IDs for analytics or research. Collection happens in an unspecified way.'
p1
S'Collection'
p2
sS'The site collects your location information for an unspecified purpose. Collection happens on the website, and your data is aggregated or anonymized.'
p3
g2
sS'The public does do something unspecified with unspecified information about you for an unspecified purpose.'
p4
S'Use'
p5
sS'You can choose not to use a service or feature to avoid the use of generic personal information by a third party, which collects or receives it for an additional (non-basic) service or feature.'
p6
S'Choices'
p7
sS'The site collects your website activities for personalization or customization. Collection happens in an unspecified way.'
p8
g2
sS'The site collects your generic personal information for analytics or research. Collection happens by a named service or third party, and your data is aggregated or anonymized.'
p9
g2
sS'The site collects your unspecified information for personalization or customization. Collection happens on the website.'
p10
g2
sS'The site collects your cookies or tracking elements for personalization or customization. Collection happens when you implicitly provide information on the website, and your data is aggregated or anonymized. You can configure your privacy with browser settings.'
p11
g2
sS'The site collects your IP address or device IDs for an unspecified purpose. Collection happens in an unspecified way, and your data is aggregated or anonymized.'
p12
g2
sS'An unnamed third party does receive unspecified information about you for an additional (non-basic) service or feature.'
p13
g5
sS'The site collects your generic personal information for a basic service or feature. Collection happens in an unspecified way. You can make a choice about the use of your information.'
p14
g2
sS'An unnamed third party does track on the first party website or app your computer information for targeted advertising.'
p15
g5
sS"A user's unspecified information is retained for a limited (but unspecified) period of time to meet legal or law enforcement requirements, and then it is deleted.."
p16
S'Disclosure'
p17
sS'A user can view their information, within the scope of unspecified user information.'
p18
S'None'
p19
sS'You can make no specified choices about the use of social media data by a third party, which collects or receives it for an additional (non-basic) service or feature.'
p20
g7
sS'The site collects your unspecified information for marketing purposes. Collection happens in an unspecified way.'
p21
g2
sS'The site collects your cookies or tracking elements for service operations or security. Collection happens when you implicitly provide information on the website.'
p22
g2
sS'The site collects your generic personal information for advertising. Collection happens when you implicitly provide information by an unnamed service or third party, and your data is identifiable.'
p23
g2
sS'The site collects your computer information for analytics or research. Collection happens in an unspecified way.'
p24
g2
sS'The site collects your user profile for an additional (non-basic) service or feature. Collection happens when you explicitly provide information in an unspecified way.'
p25
g2
sS'The site collects your generic personal information for personalization or customization. Collection happens on the website.'
p26
g2
sS'The site collects your location information for an unspecified purpose. Collection happens in an unspecified way.'
p27
g2
sS'You can use third party privacy settings to control the use of cookies and tracking elements by an unspecified party for advertising.'
p28
g7
sS'The site collects your website activities for an unspecified purpose. Collection happens when you implicitly provide information in an unspecified way. You can choose not to use the service or feature.'
p29
g2
sS'An unnamed third party does track on the first party website or app unspecified information about you for an unspecified purpose.'
p30
g5
sS'The site collects your demographic information for personalization or customization. Collection happens when you explicitly provide information in an unspecified way, and your data is identifiable.'
p31
g2
sS'An unspecified third party does receive unspecified information about you for mergers or acquisitions.'
p32
g5
sS'The site collects your generic personal information for an unspecified purpose. Collection happens when you implicitly provide information on the website.'
p33
g2
sS'An unnamed third party does receive your unspecified personal information for legal requirements.'
p34
g5
sS'The site collects your contact information for a basic service or feature. Collection happens when you explicitly provide information in an unspecified way.'
p35
g2
sS'A user with an account can opt in for the use of contact information by a third party, which collects or receives it for an additional (non-basic) service or feature.'
p36
g7
sS'An unnamed third party does track on the first party website or app your cookies or tracking elements for targeted advertising. The data is aggregated or anonymized.'
p37
g5
sS'The site collects your website activities for analytics or research. Collection happens by a named service or third party, and your data is aggregated or anonymized.'
p38
g2
sS'The site collects your contact information for marketing purposes. Collection happens when you explicitly provide information in an unspecified way.'
p39
g2
sS'The site collects your IP address or device IDs for an unspecified purpose. Collection happens in an unspecified way.'
p40
g2
sS'An unnamed third party does receive your activities on the website or app for targeted advertising. The data is aggregated or anonymized.'
p41
g5
sS'An unnamed third party does receive unspecified information about you for analytics or research.'
p42
g5
sS'An unnamed third party does receive your survey data for analytics or research. The data is aggregated or anonymized. You can opt in for data collection for the collection or sharing and use of your information.'
p43
g5
sS'The site collects your website activities for a basic service or feature. Collection happens in an unspecified way.'
p44
g2
sS'An unnamed third party does receive your location information for an additional (non-basic) service or feature. You can choose not to use the service or feature.'
p45
g5
sS'The site collects your unspecified information for an unspecified purpose. Collection happens when you implicitly provide information by an unnamed service or third party.'
p46
g2
sS'A named third party does do something outside of our label scheme with your contact information for marketing purposes. You can opt out by contacting the company.'
p47
g5
sS'You can opt out (by contacting the company) from the use of generic personal information by a third party, which collects or receives it for advertising.'
p48
g7
sS'The site collects your computer information for an unspecified purpose. Collection happens in an unspecified way, and your data is aggregated or anonymized.'
p49
g2
sS'A named third party does do something unspecified with your unspecified personal information for an unspecified purpose. The data is personally identifiable. You can opt out by contacting the company.'
p50
g5
sS"The site collects your unspecified information for an unspecified purpose. Collection happens when you explicitly provide information in an unspecified way, and your data's identifiability is not covered by our label scheme."
p51
g2
sS'The site collects your unspecified information for a basic service or feature. Collection happens in the mobile app.'
p52
g2
sS'An unnamed third party does receive your unspecified personal information for targeted advertising.'
p53
g5
sS'You can make a choice about your privacy not described by our label scheme the use of unspecified information by a third party, which collects or receives it for an additional (non-basic) service or feature.'
p54
g7
sS'The site collects your cookies or tracking elements for an additional (non-basic) service or feature. Collection happens when you implicitly provide information in an unspecified way.'
p55
g2
sS'An unnamed third party does do something unspecified with your activities on the website or app for targeted advertising.'
p56
g5
sS'You can make a choice about your privacy not described by our label scheme the use of generic personal information by a third party, which collects or receives it for an unspecified purpose.'
p57
g7
sS'An unnamed third party does not receive your unspecified personal information for an unspecified purpose. The data is personally identifiable.'
p58
g5
sS'The site collects your website activities for an unspecified purpose. Collection happens by an unnamed service or third party, and your data is aggregated or anonymized.'
p59
g2
sS'You can choose not to use a service or feature to avoid the use of unspecified information by an unspecified party for an unspecified purpose.'
p60
g7
sS'An unnamed third party does receive your financial information for an additional (non-basic) service or feature.'
p61
g5
sS'An unnamed third party does receive your unspecified personal information for marketing purposes. The data is personally identifiable.'
p62
g5
sS'An unnamed third party does do something unspecified with your IP address or device IDs for analytics or research.'
p63
g5
sS'The site collects your demographic information for a basic service or feature. Collection happens in an unspecified way.'
p64
g2
sS'The site collects your location information for an unspecified purpose. Collection happens in the mobile app.'
p65
g2
sS'The site collects your location information for a basic service or feature. Collection happens in an unspecified way.'
p66
g2
sS'The site collects your unspecified information for an additional (non-basic) service or feature. Collection happens when you explicitly provide information on the website, and your data is identifiable.'
p67
g2
sS'The site collects your unspecified information for personalization or customization. Collection happens in an unspecified way.'
p68
g2
sS'Users with accounts can edit their information, within the scope of unspecified user information.'
p69
g19
sS'An unnamed third party does receive your contact information for marketing purposes. You can opt out by contacting the company.'
p70
g5
sS'The site collects your demographic information for an unspecified purpose. Collection happens when you explicitly provide information in an unspecified way.'
p71
g2
sS'The site collects your location information for an unspecified purpose. Collection happens on the website.'
p72
g2
sS'An unnamed third party does receive your unspecified personal information for an additional (non-basic) service or feature. You can choose not to use the service or feature for the use of your information.'
p73
g5
sS'The site collects your location information for a basic service or feature. Collection happens in an unspecified way, and your data is identifiable.'
p74
g2
sS'The site collects your generic personal information for personalization or customization. Collection happens in an unspecified way.'
p75
g2
sS'The site collects your generic personal information for marketing purposes. Collection happens in an unspecified way.'
p76
g2
sS'The site collects your cookies or tracking elements for analytics or research. Collection happens by some means outside of our label scheme.'
p77
g2
sS'The site collects your generic personal information for a purpose outside of our label scheme. Collection happens by some means outside of our label scheme.'
p78
g2
sS'The site collects your cookies or tracking elements for advertising. Collection happens when you implicitly provide information in an unspecified way. You can configure your privacy with third-party user settings.'
p79
g2
sS'You can opt in for the use of generic personal information by a third party, which collects or receives it for an unspecified purpose.'
p80
g7
sS'The site collects your unspecified information for an unspecified purpose. Collection happens in the mobile app.'
p81
g2
sS'The site collects your generic personal information for a basic service or feature. Collection happens when you explicitly provide information on the website, and your data is identifiable.'
p82
g2
sS'The site collects your unspecified information for marketing purposes. Collection happens on the website.'
p83
g2
sS'The site collects your demographic information for analytics or research. Collection happens in an unspecified way.'
p84
g2
sS'The site collects your generic personal information for an unspecified purpose. Collection happens when you explicitly provide information in an unspecified way.'
p85
g2
sS'The site collects your unspecified information for personalization or customization. Collection happens when you explicitly provide information on the website, and your data is identifiable.'
p86
g2
sS'The site collects your unspecified information for service operations or security. Collection happens when you explicitly provide information on the website.'
p87
g2
sS'An unnamed third party does receive your unspecified personal information for an additional (non-basic) service or feature.'
p88
g5
sS'The site collects your demographic information for analytics or research. Collection happens in an unspecified way for a user type outside of our label scheme. You can choose not to use the service or feature.'
p89
g2
sS'The site collects an information type outside of our label scheme for advertising. Collection happens in an unspecified way.'
p90
g2
sS'An unnamed third party does do something unspecified with your IP address or device IDs for personalization or customization.'
p91
g5
sS'The site collects your cookies or tracking elements for an unspecified purpose. Collection happens when you implicitly provide information on the website. You can configure your privacy with browser settings.'
p92
g2
sS'An unnamed third party does collect on the first party website or app your cookies or tracking elements for an unspecified purpose.'
p93
g5
sS'The site collects your location information for an additional (non-basic) service or feature. Collection happens in the mobile app. You can opt in for data collection.'
p94
g2
sS'The site collects your generic personal information for analytics or research. Collection happens on the website.'
p95
g2
sS'An unnamed third party does receive unspecified information about you for an unspecified purpose. The data is aggregated or anonymized.'
p96
g5
sS'Another part of the company or institution does receive your unspecified personal information for service operations or security. The data is personally identifiable.'
p97
g5
sS'The site collects your generic personal information for analytics or research. Collection happens when you implicitly provide information in an unspecified way.'
p98
g2
sS'The public does not see your contact information for an unspecified purpose. This applies to users without accounts.'
p99
g5
sS'The site collects your cookies or tracking elements for personalization or customization. Collection happens by some means outside of our label scheme.'
p100
g2
sS'An unspecified third party does receive unspecified information about you for legal requirements.'
p101
g5
sS'Another part of the company or institution does collect on the first party website or app your cookies or tracking elements for an unspecified purpose. The data is personally identifiable.'
p102
g5
sS'The site collects your location information for an additional (non-basic) service or feature. Collection happens when you implicitly provide information in the mobile app. You can opt in for data collection for the use of your information.'
p103
g2
sS'The site collects your location information for an additional (non-basic) service or feature. Collection happens in the mobile app.'
p104
g2
sS'Another part of the company or institution does receive your unspecified personal information for a basic service or feature. The data is personally identifiable.'
p105
g5
sS'The site collects your cookies or tracking elements for analytics or research. Collection happens when you implicitly provide information on the website, and your data is aggregated or anonymized.'
p106
g2
sS'You can use third party privacy settings to control the use of unspecified information by an unspecified party for an unspecified purpose.'
p107
g7
sS'The site collects your cookies or tracking elements for personalization or customization. Collection happens on the website.'
p108
g2
sS"The website ignores Do Not Track headers and the user's Do Not Track preference."
p109
g2
sS'The site collects your location information for an unspecified purpose. Collection happens in an unspecified way, and your data is aggregated or anonymized.'
p110
g2
sS'The site collects your contact information for a basic service or feature. Collection happens when you explicitly provide information on the website, and your data is identifiable.'
p111
g2
sS'The site collects your location information for an unspecified purpose. Collection happens in the mobile app. You can configure your privacy with browser settings.'
p112
g2
sS'The site collects your generic personal information for marketing purposes. Collection happens when you implicitly provide information on the website, and your data is identifiable.'
p113
g2
sS'The site collects your computer information for an unspecified purpose. Collection happens when you implicitly provide information in an unspecified way.'
p114
g2
sS'An unnamed third party does not do something outside of our label scheme with your contact information for an unspecified purpose. This applies to users with accounts. You can opt in for data collection for the use of your information.'
p115
g5
sS'An unnamed third party does track on the first party website or app your cookies or tracking elements for targeted advertising. You can configure your privacy with third-party user settings.'
p116
g5
sS'The site collects your unspecified information for an unspecified purpose. Collection happens when you explicitly provide information by some means outside of our label scheme for a user type outside of our label scheme. You can opt in for data collection for the collection of your information.'
p117
g2
sS'An unnamed third party does not receive your contact information for marketing purposes. You can opt out by contacting the company.'
p118
g5
sS'The site collects your contact information for a basic service or feature. Collection happens in an unspecified way, and your data is identifiable.'
p119
g2
sS'The site collects your generic personal information for an additional (non-basic) service or feature. Collection happens when you explicitly provide information on the website, and your data is identifiable. You can opt in for data collection.'
p120
g2
sS'The site collects your website activities for an unspecified purpose. Collection happens in an unspecified way. You can opt in for data collection for the collection of your information.'
p121
g2
sS'The site collects your generic personal information for personalization or customization. Collection happens when you implicitly provide information on the website for users with accounts, and your data is identifiable.'
p122
g2
sS"A user's unspecified information is retained for a limited (but unspecified) period of time to fulfill a purpose not covered by our label scheme."
p123
g17
sS'A named third party does not receive your cookies or tracking elements for an unspecified purpose. The data is personally identifiable. You can opt in for data collection.'
p124
g5
sS'When a change of an unspecified nature is made to the privacy policy, users are personally notified. Users can participate in a process to influence the change.'
p125
g7
sS'A named third party does receive your survey data for an unspecified purpose. The data is aggregated or anonymized.'
p126
g5
sS'The site collects your contact information for marketing purposes. Collection happens when you implicitly provide information by an unnamed service or third party.'
p127
g2
sS'The site collects your generic personal information for service operations or security. Collection happens in an unspecified way.'
p128
g2
sS'An unnamed third party does receive your unspecified personal information for an additional (non-basic) service or feature. The data is personally identifiable.'
p129
g5
sS'An unnamed third party does receive your activities on the website or app for an unspecified purpose. The data is aggregated or anonymized.'
p130
g5
sS"When a change is made to the privacy policy that significantly affects data practices, users are notified in an unspecified manner. Users' choices regarding policy changes are not mentioned or are unclear."
p131
g7
sS'An unnamed third party does do something unspecified with your location information for targeted advertising.'
p132
g5
sS'The site collects your cookies or tracking elements for advertising. Collection happens in an unspecified way.'
p133
g2
sS'The site collects your generic personal information for legal requirements. Collection happens in an unspecified way.'
p134
g2
sS'You can make a choice about your privacy not described by our label scheme the use of generic personal information by the site, which collects it for an unspecified purpose.'
p135
g7
sS'An unnamed third party does collect on the first party website or app unspecified information about you for targeted advertising.'
p136
g5
sS'The site collects your location information for analytics or research. Collection happens when you explicitly provide information in an unspecified way.'
p137
g2
sS'An unnamed third party does receive your unspecified personal information for mergers or acquisitions. The data is personally identifiable.'
p138
g5
sS'When a change of an unspecified nature is made to the privacy policy, users receive no notification. Users can participate in a process to influence the change.'
p139
g7
sS'The site collects your cookies or tracking elements for an unspecified purpose. Collection happens when you implicitly provide information on the website, and your data is identifiable.'
p140
g2
sS'The site collects your location information for personalization or customization. Collection happens when you explicitly provide information in an unspecified way, and your data is identifiable.'
p141
g2
sS'An unnamed third party does track on the first party website or app unspecified information about you for an unspecified purpose. The data is aggregated or anonymized.'
p142
g5
sS'An unnamed third party does collect on the first party website or app unspecified information about you for an additional (non-basic) service or feature.'
p143
g5
sS'The site collects your cookies or tracking elements for analytics or research. Collection happens in an unspecified way, and your data is aggregated or anonymized.'
p144
g2
sS'The site collects your financial information for a basic service or feature. Collection happens in an unspecified way, and your data is identifiable.'
p145
g2
sS'The site collects your website activities for an additional (non-basic) service or feature. Collection happens by a named service or third party.'
p146
g2
sS'The site collects your contact information for an unspecified purpose. Collection happens by other websites.'
p147
g2
sS'The site collects your unspecified information for an unspecified purpose. Collection happens on the website, and your data is aggregated or anonymized.'
p148
g2
sS'A named third party does receive unspecified information about you for an unspecified purpose. You can opt in for data collection for the collection or sharing of your information.'
p149
g5
sS'An unnamed third party does not receive unspecified information about you for an unspecified purpose. You can opt in for data collection.'
p150
g5
sS'The site collects your unspecified information for an unspecified purpose. Collection happens by some means outside of our label scheme.'
p151
g2
sS'The site collects your cookies or tracking elements for advertising. Collection happens on the website.'
p152
g2
sS'The site collects an information type outside of our label scheme for an additional (non-basic) service or feature. Collection happens when you explicitly provide information on the website, and your data is identifiable. You can opt in for data collection for the collection of your information.'
p153
g2
sS'The site collects your cookies or tracking elements for advertising. Collection happens on the website. You can configure your privacy with browser settings.'
p154
g2
sS'The site collects your contact information for an additional (non-basic) service or feature. Collection happens in an unspecified way, and your data is identifiable.'
p155
g2
sS'The site collects your generic personal information for analytics or research. Collection happens when you explicitly provide information in an unspecified way.'
p156
g2
sS'You can make no specified choices about the use of cookies and tracking elements by a third party, which collects or receives it for advertising.'
p157
g7
sS'The public does see your contact information for an additional (non-basic) service or feature.'
p158
g5
sS'An unnamed third party does receive unspecified information about you for mergers or acquisitions.'
p159
g5
sS'You can opt out (by contacting the company) from the use of generic personal information by a third party, which uses it for marketing purposes.'
p160
g7
sS'The public does receive your unspecified personal information for an unspecified purpose. You can opt in for data collection.'
p161
g5
sS'The site collects your unspecified information for a purpose outside of our label scheme. Collection happens when you implicitly provide information by some means outside of our label scheme.'
p162
g2
sS'The site collects your unspecified information for service operations or security. Collection happens when you implicitly provide information in an unspecified way.'
p163
g2
sS'The site collects your social media data for an additional (non-basic) service or feature. Collection happens when you explicitly provide information by a named service or third party. You can configure your privacy with third-party user settings.'
p164
g2
sS'The site collects your unspecified information for marketing purposes. Collection happens when you implicitly provide information on the website, and your data is identifiable.'
p165
g2
sS'The site collects your generic personal information for an additional (non-basic) service or feature. Collection happens when you explicitly provide information in an unspecified way.'
p166
g2
sS'The site collects your unspecified information for marketing purposes. Collection happens in an unspecified way, and your data is identifiable.'
p167
g2
sS'When a change is made to the privacy policy that significantly affects data practices, users are notified in an unspecified manner. Users must agree before their data is treated according to the new privacy policy.'
p168
g7
sS'An unnamed third party does track on the first party website or app your cookies or tracking elements for an unspecified purpose. You can configure your privacy with browser settings.'
p169
g5
sS'The site collects your IP address or device IDs for analytics or research. Collection happens on the website.'
p170
g2
sS'The site collects your social media data for an unspecified purpose. Collection happens on the website, and your data is identifiable.'
p171
g2
sS'An unnamed third party does receive your unspecified personal information for a basic service or feature. The data is personally identifiable. You can opt out by contacting the company for the use of your information.'
p172
g5
sS'The site collects your cookies or tracking elements for an unspecified purpose. Collection happens in an unspecified way. You can configure your privacy with browser settings.'
p173
g2
sS'An unnamed third party does track on the first party website or app your activities on the website or app for analytics or research.'
p174
g5
sS'An unnamed third party does receive your activities on the website or app for targeted advertising. The data is aggregated or anonymized. You can make a choice about the use of your information.'
p175
g5
sS'The site collects your cookies or tracking elements for advertising. Collection happens when you implicitly provide information on the website.'
p176
g2
sS'An unnamed third party does receive unspecified information about you for marketing purposes.'
p177
g5
sS'The site collects your website activities for marketing purposes. Collection happens by some means outside of our label scheme.'
p178
g2
sS'A named third party does receive your unspecified personal information for targeted advertising. The data is aggregated or anonymized.'
p179
g5
sS'The site collects your cookies or tracking elements for analytics or research. Collection happens when you implicitly provide information on the website.'
p180
g2
sS'The site collects your computer information for an unspecified purpose. Collection happens in an unspecified way.'
p181
g2
sS'The site collects your generic personal information for an additional (non-basic) service or feature. Collection happens in an unspecified way.'
p182
g2
sS'The site collects your unspecified information for marketing purposes. Collection happens when you implicitly provide information by an unnamed service or third party.'
p183
g2
sS'The site collects your location information for an additional (non-basic) service or feature. Collection happens in the mobile app. You can opt in for data collection for the collection of your information.'
p184
g2
sS'The site collects your contact information for an additional (non-basic) service or feature. Collection happens when you explicitly provide information in an unspecified way.'
p185
g2
sS'The site collects your IP address or device IDs for an unspecified purpose. Collection happens in an unspecified way. You can opt in for data collection for the collection of your information.'
p186
g2
sS'An unnamed third party does do something unspecified with unspecified information about you for an unspecified purpose.'
p187
g5
sS'The site collects your IP address or device IDs for a purpose outside of our label scheme. Collection happens in an unspecified way.'
p188
g2
sS'The site collects your location information for personalization or customization. Collection happens in the mobile app. You can configure your privacy with browser settings.'
p189
g2
sS'The site collects your demographic information for an unspecified purpose. Collection happens on the website, and your data is aggregated or anonymized.'
p190
g2
sS'You can use third party privacy settings to control the use of unspecified information by a third party, which uses it for advertising.'
p191
g7
sS'The site collects your cookies or tracking elements for an unspecified purpose. Collection happens in an unspecified way. You can opt out using the provided link.'
p192
g2
sS'The site collects your generic personal information for an unspecified purpose. Collection happens when you implicitly provide information by an unnamed service or third party.'
p193
g2
sS'An unnamed third party does receive your unspecified personal information for legal requirements. The data is personally identifiable.'
p194
g5
sS'A named third party does not receive your contact information for an unspecified purpose. The data is personally identifiable. You can opt in for data collection.'
p195
g5
sS'An unnamed third party does receive unspecified information about you for an unspecified purpose.'
p196
g5
sS'The site collects your generic personal information for a basic service or feature. Collection happens in an unspecified way, and your data is identifiable.'
p197
g2
sS'The site collects your cookies or tracking elements for advertising. Collection happens in an unspecified way, and your data is aggregated or anonymized.'
p198
g2
sS'The site collects your contact information for personalization or customization. Collection happens by an unnamed service or third party.'
p199
g2
sS'The site collects your social media data for an unspecified purpose. Collection happens by other websites, and your data is identifiable.'
p200
g2
sS'You can opt in for the use of unspecified information by a third party, which collects or receives it for an unspecified purpose.'
p201
g7
sS'Another part of the company or institution does receive unspecified information about you for a basic service or feature. The data is personally identifiable.'
p202
g5
sS'You can make no specified choices about the use of unspecified information by a third party, which collects or receives it for an unspecified purpose.'
p203
g7
sS'A named third party does receive your unspecified personal information for targeted advertising. The data is personally identifiable. You can opt out by contacting the company.'
p204
g5
sS'An unnamed third party does collect on the first party website or app your cookies or tracking elements for targeted advertising.'
p205
g5
sS'The site collects your unspecified information for an unspecified purpose. Collection happens when you implicitly provide information on the website.'
p206
g2
sS'A named third party does do something outside of our label scheme with your activities on the website or app for targeted advertising.'
p207
g5
sS'An unnamed third party does receive your contact information for targeted advertising. The data is personally identifiable. You can opt out by contacting the company for the use of your information.'
p208
g5
sS'An unnamed third party does receive unspecified information about you for analytics or research. The data is aggregated or anonymized.'
p209
g5
sS'You can opt in for the use of activities on the website or app by a third party, which collects or receives it for an unspecified purpose.'
p210
g7
sS'The site collects your unspecified information for an unspecified purpose. Collection happens when you implicitly provide information by other parts of the company or affiliates, and your data is identifiable.'
p211
g2
sS'An unnamed third party does not receive your survey data for analytics or research. The data is personally identifiable. You can opt in for data collection for the collection or sharing and use of your information.'
p212
g5
sS'You can use privacy configuration settings (in the website or app) to control the use of contact information by the site, which uses it for an additional (non-basic) service or feature.'
p213
g7
sS'The site collects your cookies or tracking elements for advertising. Collection happens when you implicitly provide information on the website, and your data is aggregated or anonymized.'
p214
g2
sS'The site collects your cookies or tracking elements for marketing purposes. Collection happens when you implicitly provide information on the website, and your data is aggregated or anonymized.'
p215
g2
sS'An unnamed third party does do something unspecified with your activities on the website or app for personalization or customization.'
p216
g5
sS'An unspecified third party does receive your activities on the website or app for an additional (non-basic) service or feature.'
p217
g5
sS'The site collects an information type outside of our label scheme for an unspecified purpose. Collection happens in an unspecified way.'
p218
g2
sS'You can use privacy configuration settings (in your browser or on your device) to control the use of cookies and tracking elements by the site, which collects it for an unspecified purpose.'
p219
g7
sS'The site collects your cookies or tracking elements for personalization or customization. Collection happens when you implicitly provide information on the website. You can configure your privacy with third-party user settings.'
p220
g2
sS'The site collects your generic personal information for an unspecified purpose. Collection happens when you implicitly provide information by a named service or third party.'
p221
g2
sS'An unnamed third party does do something unspecified with your activities on the website or app for analytics or research.'
p222
g5
sS'The site collects your contact information for a basic service or feature. Collection happens on the website for users with accounts.'
p223
g2
sS'The public does do something unspecified with your user profile for an unspecified purpose.'
p224
g5
sS'You can make no specified choices about the use of unspecified information by the site, which uses it for a purpose outside of our label scheme.'
p225
g7
sS'The site collects your cookies or tracking elements for advertising. Collection happens when you implicitly provide information in an unspecified way.'
p226
g2
sS'A user with an account can make a choice about your privacy not described by our label scheme the use of contact information by the site, which uses it for a purpose outside of our label scheme.'
p227
g7
sS'You can opt out (via a link) from the use of cookies and tracking elements by a third party, which collects or receives it for advertising.'
p228
g7
sS'The site collects your website activities for an additional (non-basic) service or feature. Collection happens when you implicitly provide information in an unspecified way.'
p229
g2
sS'The site collects your generic personal information for personalization or customization. Collection happens when you explicitly provide information on the website, and your data is identifiable.'
p230
g2
sS'An unnamed third party does do something unspecified with your IP address or device IDs for targeted advertising.'
p231
g5
sS'A named third party does not track on the first party website or app your contact information for an unspecified purpose.'
p232
g5
sS'You can opt out (by contacting the company) from the use of contact information by a third party, which collects or receives it for marketing purposes.'
p233
g7
sS'An unnamed third party does collect on the first party website or app your activities on the website or app for an unspecified purpose.'
p234
g5
sS"A user's unspecified information is retained for an unspecified duration to fulfill an unspecified purpose."
p235
g17
sS"When a change is made to the privacy policy that significantly affects data practices, the policy date is updated or information about the change is posted as part of the policy. Users' choices regarding policy changes are not mentioned or are unclear."
p236
g7
sS'The site collects your IP address or device IDs for advertising. Collection happens in an unspecified way.'
p237
g2
sS'A user can delete their account (although the company or organization may continue to keep some data), within the scope of information the company has learned about the user.'
p238
g19
sS'The site collects your cookies or tracking elements for an additional (non-basic) service or feature. Collection happens when you implicitly provide information in an unspecified way, and your data is identifiable. You can configure your privacy with browser settings for the collection of your information.'
p239
g2
sS'An unnamed third party does receive your survey data for analytics or research. The data is aggregated or anonymized.'
p240
g5
sS'The site collects your generic personal information for analytics or research. Collection happens when you explicitly provide information in an unspecified way, and your data is identifiable.'
p241
g2
sS'An unnamed third party does collect on the first party website or app your location information for an unspecified purpose.'
p242
g5
sS'The site does not collect your unspecified information for an unspecified purpose. Collection happens when you explicitly provide information on the website.'
p243
g2
sS'The site collects your unspecified information for service operations or security. Collection happens in an unspecified way.'
p244
g2
sS'The site collects your generic personal information for an unspecified purpose. Collection happens on the website.'
p245
g2
sS'You can use third party privacy settings to control the use of social media data by the site, which uses it for an additional (non-basic) service or feature.'
p246
g7
sS'The site collects your financial information for an additional (non-basic) service or feature. Collection happens by some means outside of our label scheme.'
p247
g2
sS'The site collects your generic personal information for marketing purposes. Collection happens when you implicitly provide information in an unspecified way, and your data is identifiable. You can opt out by contacting the company for the use of your information.'
p248
g2
sS'An unnamed third party does do something outside of our label scheme with your cookies or tracking elements for an unspecified purpose.'
p249
g5
sS'You can opt in for the use of unique personal identifier by the site, which collects it for an unspecified purpose.'
p250
g7
sS'The site collects your computer information for analytics or research. Collection happens by some means outside of our label scheme.'
p251
g2
sS'An unnamed third party does track on the first party website or app unspecified information about you for analytics or research. The data is aggregated or anonymized.'
p252
g5
sS'An unnamed third party does not receive your contact information for a purpose outside of our label scheme. You can configure your privacy using a method outside our label scheme.'
p253
g5
sS'A named third party does receive your unspecified personal information for marketing purposes. The data is personally identifiable. You can opt out by contacting the company.'
p254
g5
sS'A named third party does receive your unspecified personal information for an additional (non-basic) service or feature. The data is personally identifiable. You can opt out by contacting the company.'
p255
g5
sS'The site collects your user profile for an unspecified purpose. Collection happens by other websites.'
p256
g2
sS'The site collects your generic personal information for a basic service or feature. Collection happens when you explicitly provide information in an unspecified way.'
p257
g2
sS'Another part of the company or institution does receive your unspecified personal information for mergers or acquisitions.'
p258
g5
sS'The site collects your contact information for a basic service or feature. Collection happens by some means outside of our label scheme. You can configure your privacy using a method outside our label scheme for the use of your information.'
p259
g2
sS'An unnamed third party does receive your unspecified personal information for service operations or security. The data is personally identifiable.'
p260
g5
sS'The site collects your unspecified information for an unspecified purpose. Collection happens in an unspecified way.'
p261
g2
sS'The site collects your unspecified information for analytics or research. Collection happens when you implicitly provide information on the website, and your data is aggregated or anonymized.'
p262
g2
sS'The site collects your unspecified information for marketing purposes. Collection happens when you implicitly provide information by some means outside of our label scheme.'
p263
g2
sS'The site collects your generic personal information for marketing purposes. Collection happens when you explicitly provide information in an unspecified way.'
p264
g2
sS'The site collects your contact information for a basic service or feature. Collection happens by some means outside of our label scheme.'
p265
g2
sS'The site collects your location information for a basic service or feature. Collection happens when you explicitly provide information in an unspecified way for users with accounts. You can opt in for data collection for the collection of your information.'
p266
g2
sS'You can make no specified choices about the use of unspecified information by an unspecified party for marketing purposes.'
p267
g7
sS'The public does do something outside of our label scheme with information about you not covered by our label scheme for marketing purposes. You can choose not to use the service or feature for the collection or sharing and use of your information.'
p268
g5
sS'A named third party does receive your unspecified personal information for analytics or research. The data is personally identifiable. You can opt out by contacting the company.'
p269
g5
sS'The site collects your demographic information for an unspecified purpose. Collection happens when you explicitly provide information in an unspecified way for users with accounts, and your data is aggregated or anonymized. You can opt in for data collection for the collection of your information.'
p270
g2
sS'An unnamed third party does track on the first party website or app your location information for analytics or research.'
p271
g5
sS'The site collects your unspecified information for personalization or customization. Collection happens when you implicitly provide information by some means outside of our label scheme.'
p272
g2
sS'Users with accounts can view their information, within the scope of unspecified user information.'
p273
g19
sS'The site collects your financial information for a basic service or feature. Collection happens when you explicitly provide information in an unspecified way.'
p274
g2
sS'The site collects your computer information for personalization or customization. Collection happens when you implicitly provide information on the website.'
p275
g2
sS'Another part of the company or institution does see your unspecified personal information for marketing purposes. The data is personally identifiable.'
p276
g5
sS'You can opt out (by contacting the company) from the use of unspecified information by an unspecified party for marketing purposes.'
p277
g7
sS'An unnamed third party does do something unspecified with your cookies or tracking elements for targeted advertising.'
p278
g5
sS'The site collects your IP address or device IDs for an unspecified purpose. Collection happens on the website, and your data is aggregated or anonymized.'
p279
g2
sS'An unnamed third party does do something unspecified with your unspecified personal information for service operations or security.'
p280
g5
sS'The site collects your generic personal information for marketing purposes. Collection happens in an unspecified way, and your data is identifiable. You can opt out by contacting the company.'
p281
g2
sS'The site collects your website activities for an unspecified purpose. Collection happens on the website, and your data is aggregated or anonymized.'
p282
g2
sS'An unnamed third party does receive information about you not covered by our label scheme for legal requirements.'
p283
g5
sS'An unnamed third party does track on the first party website or app your cookies or tracking elements for analytics or research.'
p284
g5
sS'The site collects your contact information for an unspecified purpose. Collection happens when you explicitly provide information in an unspecified way.'
p285
g2
sS'You can use privacy configuration settings (in your browser or on your device) to control the use of cookies and tracking elements by an unspecified party for an unspecified purpose.'
p286
g7
sS'The site collects your unspecified information for a basic service or feature. Collection happens when you explicitly provide information on the website, and your data is identifiable.'
p287
g2
sS'A named third party does receive your unspecified personal information for an additional (non-basic) service or feature.'
p288
g5
sS'The site collects your demographic information for personalization or customization. Collection happens by an unnamed service or third party.'
p289
g2
sS'The site collects your generic personal information for an unspecified purpose. Collection happens by an unnamed service or third party.'
p290
g2
sS'An unnamed third party does receive your demographic information for targeted advertising. The data is aggregated or anonymized.'
p291
g5
sS'The site collects your generic personal information for a basic service or feature. Collection happens on the website.'
p292
g2
sS'The site collects your unspecified information for an additional (non-basic) service or feature. Collection happens in an unspecified way.'
p293
g2
sS'The site collects your cookies or tracking elements for analytics or research. Collection happens by a named service or third party, and your data is aggregated or anonymized.'
p294
g2
sS'An unnamed third party does receive your contact information for a basic service or feature.'
p295
g5
sS'An unnamed third party does receive your unspecified personal information for marketing purposes. The data is personally identifiable. You can opt out by contacting the company for the use of your information.'
p296
g5
sS'A user without an account can opt out (by contacting the company) from the use of contact information by the site, which collects it for an additional (non-basic) service or feature.'
p297
g7
sS'The site collects your contact information for an unspecified purpose. Collection happens when you explicitly provide information in an unspecified way, and your data is identifiable.'
p298
g2
sS'The site collects your location information for advertising. Collection happens on the website.'
p299
g2
sS'Other users does see your unspecified personal information for an additional (non-basic) service or feature. You can opt in for data collection for the collection or sharing of your information.'
p300
g5
sS'You can opt out (via a link) from the use of unique personal identifier by the site, which uses it for marketing purposes.'
p301
g7
sS'The site collects your generic personal information for advertising. Collection happens on the website.'
p302
g2
sS'The site collects your financial information for an additional (non-basic) service or feature. Collection happens in an unspecified way, and your data is identifiable.'
p303
g2
sS'An unnamed third party does receive unspecified information about you for marketing purposes. The data is personally identifiable.'
p304
g5
sS'An unnamed third party does collect on the first party website or app your activities on the website or app for service operations or security.'
p305
g5
sS'An unnamed third party does receive unspecified information about you for targeted advertising. The data is aggregated or anonymized.'
p306
g5
sS'The site collects your cookies or tracking elements for a basic service or feature. Collection happens when you implicitly provide information on the website.'
p307
g2
sS'The site collects your IP address or device IDs for an unspecified purpose. Collection happens when you implicitly provide information on the website.'
p308
g2
sS'The site collects your generic personal information for an additional (non-basic) service or feature. Collection happens in an unspecified way, and your data is identifiable.'
p309
g2
sS'You can opt out (via a link) from the use of contact information by an unspecified party for marketing purposes.'
p310
g7
sS'The site collects your location information for an unspecified purpose. Collection happens when you explicitly provide information in an unspecified way for users with accounts, and your data is aggregated or anonymized. You can opt in for data collection for the collection of your information.'
p311
g2
sS'The site collects your unspecified information for analytics or research. Collection happens on the website.'
p312
g2
sS'An unnamed third party does not receive your unspecified personal information for an unspecified purpose. The data is personally identifiable. You can opt in for data collection.'
p313
g5
sS'The public does see your user profile for an additional (non-basic) service or feature.'
p314
g5
sS'A named third party does receive your unspecified personal information for a basic service or feature. The data is personally identifiable. You can opt out by contacting the company.'
p315
g5
sS'The public does see unspecified information about you for a purpose outside of our label scheme. This applies to users with accounts. You can opt in for data collection.'
p316
g5
sS'The site collects your demographic information for advertising. Collection happens in an unspecified way.'
p317
g2
sS'An unnamed third party does not receive your contact information for an unspecified purpose. This applies to users with accounts. You can opt in for data collection for the use of your information.'
p318
g5
sS'The public does do something outside of our label scheme with unspecified information about you for an additional (non-basic) service or feature. You can choose not to use the service or feature.'
p319
g5
sS'The site collects your generic personal information for an unspecified purpose. Collection happens when you explicitly provide information in an unspecified way. You can choose not to use the service or feature for the collection and use of your information.'
p320
g2
sS'An unnamed third party does receive unspecified information about you for mergers or acquisitions. The data is personally identifiable.'
p321
g5
sS'The public does see unspecified information about you for an unspecified purpose. You can opt in for data collection for the collection or sharing and use of your information.'
p322
g5
sS'The site collects your cookies or tracking elements for an unspecified purpose. Collection happens when you implicitly provide information in an unspecified way.'
p323
g2
sS'A third party outside of our label scheme does receive unspecified information about you for an unspecified purpose. You can choose not to use the service or feature.'
p324
g5
sS'The site collects your financial information for a basic service or feature. Collection happens when you explicitly provide information on the website, and your data is identifiable.'
p325
g2
sS'The site collects your generic personal information for marketing purposes. Collection happens when you explicitly provide information on the website, and your data is identifiable.'
p326
g2
sS'An unnamed third party does receive your unspecified personal information for an unspecified purpose.'
p327
g5
sS'An unnamed third party does receive your location information for targeted advertising. The data is personally identifiable. You can opt out by contacting the company for the use of your information.'
p328
g5
sS'The site collects your generic personal information for an unspecified purpose. Collection happens in an unspecified way. You can opt in for data collection for the collection of your information.'
p329
g2
sS'An unnamed third party does collect on the first party website or app your IP address or device IDs for targeted advertising.'
p330
g5
sS'An unnamed third party does receive information about you not covered by our label scheme for an unspecified purpose.'
p331
g5
sS'An unnamed third party does receive your activities on the website or app for personalization or customization. The data is aggregated or anonymized.'
p332
g5
sS'An unnamed third party does do something outside of our label scheme with unspecified information about you for an unspecified purpose.'
p333
g5
sS'The site collects your contact information for a basic service or feature. Collection happens on the website.'
p334
g2
sS'A user with an account can opt in for the use of unspecified information by a third party, which collects or receives it for an additional (non-basic) service or feature.'
p335
g7
sS'A named third party does collect on the first party website or app your IP address or device IDs for an additional (non-basic) service or feature.'
p336
g5
sS'You can use third party privacy settings to control the use of social media data by the site, which collects it for an additional (non-basic) service or feature.'
p337
g7
sS'An unnamed third party does receive your cookies or tracking elements for a basic service or feature.'
p338
g5
sS'An unnamed third party does receive unspecified information about you for an unspecified purpose. You can opt in for data collection.'
p339
g5
sS'The site collects your unspecified information for a basic service or feature. Collection happens when you explicitly provide information in an unspecified way.'
p340
g2
sS"A user's generic personal information is retained for an unspecified duration to fulfill an unspecified purpose."
p341
g17
sS'An unnamed third party does receive unspecified information about you for a basic service or feature.'
p342
g5
sS'The site collects your IP address or device IDs for an unspecified purpose. Collection happens on the website.'
p343
g2
sS'A user can view their information, within the scope of information explicitly provided by the user.'
p344
g19
sS"A user's generic personal information is retained for a limited (but unspecified) period of time to perform a requested service, and then it is deleted.."
p345
g17
sS"When a change of an unspecified nature is made to the privacy policy, users are notified in a manner outside of our label scheme. Users' choices regarding policy changes are not mentioned or are unclear."
p346
g7
sS'A named third party does not receive your unspecified personal information for targeted advertising.'
p347
g5
sS'An unnamed third party does receive your IP address or device IDs for an additional (non-basic) service or feature.'
p348
g5
sS'The site collects your generic personal information for a basic service or feature. Collection happens when you implicitly provide information on the website, and your data is identifiable.'
p349
g2
sS'The site collects your user profile for a basic service or feature. Collection happens on the website for users with accounts. You can opt in for data collection.'
p350
g2
sS'Data is stored securely, e.g. in an encrypted format or database.'
p351
g17
sS'You can opt out (by contacting the company) from the use of contact information by the site, which uses it for marketing purposes.'
p352
g7
sS'An unnamed third party does not receive your cookies or tracking elements for an unspecified purpose. The data is personally identifiable. You can opt in for data collection.'
p353
g5
sS'An unspecified third party does receive your unspecified personal information for mergers or acquisitions. The data is personally identifiable.'
p354
g5
sS'The public does receive your activities on the website or app for an unspecified purpose. You can opt in for data collection.'
p355
g5
sS'The site collects your IP address or device IDs for an unspecified purpose. Collection happens when you implicitly provide information in an unspecified way, and your data is aggregated or anonymized.'
p356
g2
sS'Users with accounts can view their information, within the scope of information explicitly provided by the user.'
p357
g19
sS'The site collects your generic personal information for an additional (non-basic) service or feature. Collection happens when you explicitly provide information in an unspecified way, and your data is identifiable.'
p358
g2
sS'The site collects your IP address or device IDs for an additional (non-basic) service or feature. Collection happens when you implicitly provide information in an unspecified way.'
p359
g2
sS'A user can view their information, within the scope of transactional data (e.g., online activity, purchases).'
p360
g19
sS'The site collects your survey data for an unspecified purpose. Collection happens by some means outside of our label scheme.'
p361
g2
sS'The site collects your demographic information for an additional (non-basic) service or feature. Collection happens in an unspecified way, and your data is identifiable.'
p362
g2
sS'A named third party does receive your demographic information for targeted advertising.'
p363
g5
sS'A user can edit their information, within the scope of information the company has learned about the user.'
p364
g19
sS'Another part of the company or institution does see your unspecified personal information for analytics or research. The data is personally identifiable.'
p365
g5
sS'An unnamed third party does receive information about you not covered by our label scheme for marketing purposes. This applies to a user type outside of our label scheme. You can opt out by contacting the company for the collection or sharing of your information.'
p366
g5
sS'The site collects your contact information for marketing purposes. Collection happens in an unspecified way.'
p367
g2
sS"Do Not Track headers are mentioned but it is unclear if the company adheres to the user's Do Not Track preference."
p368
g2
sS'An unnamed third party does receive your financial information for a basic service or feature.'
p369
g5
sS'A named third party does receive your activities on the website or app for personalization or customization.'
p370
g5
sS'The policy makes a statement about how data from Californian users is treated (e.g., California privacy rights).'
p371
g19
sS"The site collects your location information for an unspecified purpose. Collection happens when you explicitly provide information in an unspecified way, and your data's identifiability is not covered by our label scheme."
p372
g2
sS'The site collects your contact information for an unspecified purpose. Collection happens by some means outside of our label scheme.'
p373
g2
sS'An unnamed third party does receive your unspecified personal information for personalization or customization. The data is aggregated or anonymized.'
p374
g5
sS'An unnamed third party does collect on the first party website or app your unspecified personal information for an unspecified purpose. You can choose not to use the service or feature for the collection or sharing of your information.'
p375
g5
sS'An unnamed third party does not receive your contact information for a purpose outside of our label scheme. You can opt in for data collection for the collection or sharing and use of your information.'
p376
g5
sS"When a change of an unspecified nature is made to the privacy policy, users are notified when visiting the website. Users' choices regarding policy changes are not mentioned or are unclear."
p377
g7
sS'The site collects your unspecified information for service operations or security. Collection happens on the website.'
p378
g2
sS'You can opt in for the use of user profile by a third party, which collects or receives it for an unspecified purpose.'
p379
g7
sS'The site collects your location information for an additional (non-basic) service or feature. Collection happens in the mobile app. You can choose not to use the service or feature.'
p380
g2
sS'An unnamed third party does receive your unspecified personal information for analytics or research. The data is personally identifiable. You can opt out by contacting the company for the use of your information.'
p381
g5
sS'The site collects your IP address or device IDs for analytics or research. Collection happens by some means outside of our label scheme.'
p382
g2
sS'The site collects your website activities for an unspecified purpose. Collection happens in an unspecified way.'
p383
g2
sS'The site collects your IP address or device IDs for advertising. Collection happens on the website.'
p384
g2
sS'The site collects your cookies or tracking elements for an unspecified purpose. Collection happens when you implicitly provide information on the website. You can configure your privacy with third-party user settings.'
p385
g2
sS'The site collects your unspecified information for an unspecified purpose. Collection happens when you implicitly provide information in an unspecified way.'
p386
g2
sS'A named third party does receive your unspecified personal information for an unspecified purpose.'
p387
g5
sS'You can opt out (via a link) from the use of information of a type not covered by our label scheme by a third party, which collects or receives it for an unspecified purpose.'
p388
g7
sS'The site collects your contact information for personalization or customization. Collection happens when you explicitly provide information in an unspecified way, and your data is identifiable.'
p389
g2
sS'The site collects your IP address or device IDs for an unspecified purpose. Collection happens when you implicitly provide information in an unspecified way. You can choose not to use the service or feature.'
p390
g2
sS'The site collects your unspecified information for analytics or research. Collection happens by some means outside of our label scheme.'
p391
g2
sS'The company/organization has a privacy or security program/organization in place addressing, for example, how to protect data against unauthorized access or privacy training for employees.'
p392
g17
sS'A named third party does receive your survey data for targeted advertising. The data is aggregated or anonymized.'
p393
g5
sS'The site collects your demographic information for an unspecified purpose. Collection happens when you explicitly provide information on the website, and your data is identifiable.'
p394
g2
sS'The site collects your cookies or tracking elements for a basic service or feature. Collection happens in an unspecified way.'
p395
g2
sS'Users with accounts can edit their information, within the scope of information explicitly provided by the user.'
p396
g19
sS'An unnamed third party does do something unspecified with your cookies or tracking elements for an unspecified purpose. You can configure your privacy with browser settings.'
p397
g5
sS'An unspecified third party does receive your unspecified personal information for mergers or acquisitions.'
p398
g5
sS'The site collects your contact information for marketing purposes. Collection happens on the website, and your data is identifiable. You can opt out using the provided link.'
p399
g2
sS'The site collects your cookies or tracking elements for analytics or research. Collection happens when you implicitly provide information in an unspecified way.'
p400
g2
sS'The site collects your generic personal information for an unspecified purpose. Collection happens by other parts of the company or affiliates.'
p401
g2
sS"A user's unspecified information is retained for a limited (but unspecified) period of time to fulfill an unspecified purpose."
p402
g17
sS'The site collects your demographic information for a basic service or feature. Collection happens in an unspecified way, and your data is identifiable.'
p403
g2
sS'The site collects your cookies or tracking elements for an unspecified purpose. Collection happens on the website.'
p404
g2
sS'The site collects your cookies or tracking elements for advertising. Collection happens when you implicitly provide information on the website, and your data is aggregated or anonymized. You can configure your privacy with browser settings.'
p405
g2
sS"A user's generic personal information is retained for a limited (but unspecified) period of time to meet legal or law enforcement requirements, and then it is deleted.."
p406
g17
sS'The site collects your user profile for advertising. Collection happens when you explicitly provide information in an unspecified way.'
p407
g2
sS'Users with accounts can view their information, within the scope of transactional data (e.g., online activity, purchases).'
p408
g19
sS'The site collects your unspecified information for an unspecified purpose. Collection happens by some means outside of our label scheme for users with accounts.'
p409
g2
sS'The site collects your generic personal information for legal requirements. Collection happens when you implicitly provide information in an unspecified way.'
p410
g2
sS'The site collects your cookies or tracking elements for an additional (non-basic) service or feature. Collection happens when you implicitly provide information in an unspecified way for users with accounts, and your data is identifiable. You can configure your privacy with browser settings for the collection of your information.'
p411
g2
sS'An unspecified third party does receive your unspecified personal information for service operations or security.'
p412
g5
sS'The site collects your generic personal information for an additional (non-basic) service or feature. Collection happens by some means outside of our label scheme.'
p413
g2
sS'A named third party does receive your unspecified personal information for a basic service or feature. The data is personally identifiable.'
p414
g5
sS'The public does see your unspecified personal information for an additional (non-basic) service or feature.'
p415
g5
sS'When a change of an unspecified nature is made to the privacy policy, the policy date is updated or information about the change is posted as part of the policy. Users can participate in a process to influence the change.'
p416
g7
sS'The site collects your generic personal information for service operations or security. Collection happens when you implicitly provide information in an unspecified way.'
p417
g2
sS'An unnamed third party does collect on the first party website or app your cookies or tracking elements for targeted advertising. The data is aggregated or anonymized.'
p418
g5
sS'The site collects your unspecified information for an unspecified purpose. Collection happens when you implicitly provide information by other websites.'
p419
g2
sS'When a change of an unspecified nature is made to the privacy policy, the policy date is updated or information about the change is posted as part of the policy. Users have no options regarding the change.'
p420
g7
sS'When a change of an unspecified nature is made to the privacy policy, users are notified in an unspecified manner. Users have no options regarding the change.'
p421
g7
sS'An unnamed third party does receive unspecified information about you for marketing purposes. This applies to a user type outside of our label scheme. You can opt out by contacting the company for the collection or sharing of your information.'
p422
g5
sS'The site collects your cookies or tracking elements for service operations or security. Collection happens by some means outside of our label scheme.'
p423
g2
sS'The site collects your IP address or device IDs for a basic service or feature. Collection happens in an unspecified way.'
p424
g2
sS'The site collects your unspecified information for marketing purposes. Collection happens when you implicitly provide information in an unspecified way.'
p425
g2
sS'An unnamed third party does receive unspecified information about you for legal requirements.'
p426
g5
sS'Other users does see your unspecified personal information for a purpose outside of our label scheme.'
p427
g5
sS'When a change of an unspecified nature is made to the privacy policy, users receive no notification. Users have no options regarding the change.'
p428
g7
sS'A named third party does collect on the first party website or app your unspecified personal information for an additional (non-basic) service or feature.'
p429
g5
sS'An unspecified third party does not receive unspecified information about you for an unspecified purpose. The data is personally identifiable. You can opt in for data collection.'
p430
g5
sS'The site collects your cookies or tracking elements for analytics or research. Collection happens when you implicitly provide information on the website. You can configure your privacy with browser settings.'
p431
g2
sS'The site collects your unspecified information for an unspecified purpose. Collection happens on the website, and your data is identifiable.'
p432
g2
sS'An unspecified third party does not receive unspecified information about you for an unspecified purpose. The data is aggregated or anonymized.'
p433
g5
sS'When a change of an unspecified nature is made to the privacy policy, users are personally notified. Users have no options regarding the change.'
p434
g7
sS'The site collects your computer information for personalization or customization. Collection happens in an unspecified way.'
p435
g2
sS'The site collects your cookies or tracking elements for marketing purposes. Collection happens in an unspecified way, and your data is aggregated or anonymized.'
p436
g2
sS'An unspecified third party does receive unspecified information about you for service operations or security.'
p437
g5
sS'You can choose not to use a service or feature to avoid the use of cookies and tracking elements by an unspecified party for a basic service or feature.'
p438
g7
sS'A named third party does not receive unspecified information about you for targeted advertising. The data is personally identifiable.'
p439
g5
sS'A named third party does collect on the first party website or app your activities on the website or app for targeted advertising.'
p440
g5
sS'The site collects your generic personal information for an unspecified purpose. Collection happens when you implicitly provide information in an unspecified way.'
p441
g2
sS'The site collects your contact information for an additional (non-basic) service or feature. Collection happens when you explicitly provide information in an unspecified way. You can opt in for data collection for the collection of your information.'
p442
g2
sS'Another part of the company or institution does receive unspecified information about you for an unspecified purpose.'
p443
g5
sS'An unnamed third party does receive your unspecified personal information for an unspecified purpose. You can opt in for data collection.'
p444
g5
sS'A user can access, edit, or delete personal information in an unspecified manner, within the scope of unspecified user information.'
p445
g19
sS'The site collects your generic personal information for analytics or research. Collection happens when you explicitly provide information on the website, and your data is identifiable.'
p446
g2
sS"When a change of an unspecified nature is made to the privacy policy, users receive no notification. Users' choices regarding policy changes are not mentioned or are unclear."
p447
g7
sS'The site collects your unspecified information for an unspecified purpose. Collection happens when you implicitly provide information in an unspecified way, and your data is aggregated or anonymized.'
p448
g2
sS'When a change of an unspecified nature is made to the privacy policy, users are notified when visiting the website. Users have no options regarding the change.'
p449
g7
sS'Another part of the company or institution does receive unspecified information about you for service operations or security. The data is personally identifiable.'
p450
g5
sS'The site collects your website activities for analytics or research. Collection happens when you implicitly provide information on the website, and your data is aggregated or anonymized.'
p451
g2
sS'The site collects your generic personal information for an unspecified purpose. Collection happens when you explicitly provide information in an unspecified way, and your data is identifiable.'
p452
g2
sS'The site collects your generic personal information for marketing purposes. Collection happens by some means outside of our label scheme.'
p453
g2
sS'A named third party does receive information about you not covered by our label scheme for marketing purposes. You can configure your privacy using a method outside our label scheme.'
p454
g5
sS'The site collects an information type outside of our label scheme for an unspecified purpose. Collection happens when you explicitly provide information in an unspecified way for users with accounts.'
p455
g2
sS'You can opt out (via a link) from the use of contact information by an unspecified party for an unspecified purpose.'
p456
g7
sS'The site collects your demographic information for personalization or customization. Collection happens when you implicitly provide information by an unnamed service or third party, and your data is identifiable.'
p457
g2
sS'An unnamed third party does do something unspecified with your cookies or tracking elements for analytics or research.'
p458
g5
sS'An unnamed third party does collect on the first party website or app your unspecified personal information for marketing purposes. You can choose not to use the service or feature.'
p459
g5
sS'The site collects your generic personal information for an unspecified purpose. Collection happens when you explicitly provide information on the website.'
p460
g2
sS'You can make no specified choices about the use of unspecified information by the site, which uses it for legal requirements.'
p461
g7
sS'The site collects your contact information for a basic service or feature. Collection happens when you explicitly provide information by some means outside of our label scheme. You can opt in for data collection for the collection of your information.'
p462
g2
sS'A named third party does do something unspecified with your IP address or device IDs for targeted advertising.'
p463
g5
sS'The site collects your location information for an unspecified purpose. Collection happens when you implicitly provide information on the website.'
p464
g2
sS'An unnamed third party does do something unspecified with your computer information for targeted advertising.'
p465
g5
sS'An unnamed third party does track on the first party website or app your cookies or tracking elements for a basic service or feature.'
p466
g5
sS"When a change of an unspecified nature is made to the privacy policy, users are notified in an unspecified manner. Users' choices regarding policy changes are not mentioned or are unclear."
p467
g7
sS'The site collects your cookies or tracking elements for personalization or customization. Collection happens when you implicitly provide information on the website. You can configure your privacy with browser settings.'
p468
g2
sS'You can make no specified choices about the use of unspecified information by a third party, which collects or receives it for advertising.'
p469
g7
sS'You can use privacy configuration settings (in your browser or on your device) to control the use of cookies and tracking elements by the site, which collects it for a basic service or feature.'
p470
g7
sS'A user can delete their account (although the company or organization may continue to keep some data), within the scope of information explicitly provided by the user.'
p471
g19
sS'An unnamed third party does receive your unspecified personal information for targeted advertising. The data is personally identifiable. You can opt out by contacting the company for the use of your information.'
p472
g5
sS'You can opt out (via a link) from the use of contact information by a third party, which collects or receives it for an unspecified purpose.'
p473
g7
sS'Another part of the company or institution does receive your unspecified personal information for legal requirements. The data is personally identifiable.'
p474
g5
sS'The site collects your survey data for an unspecified purpose. Collection happens by other websites.'
p475
g2
sS'The site collects your website activities for an unspecified purpose. Collection happens when you explicitly provide information in an unspecified way.'
p476
g2
sS'The site collects your computer information for an unspecified purpose. Collection happens when you implicitly provide information on the website.'
p477
g2
sS'The site collects your IP address or device IDs for an additional (non-basic) service or feature. Collection happens in an unspecified way.'
p478
g2
sS'The site collects your computer information for service operations or security. Collection happens when you implicitly provide information in an unspecified way.'
p479
g2
sS'The site collects your location information for an unspecified purpose. Collection happens when you explicitly provide information in an unspecified way.'
p480
g2
sS"The site collects your cookies or tracking elements for an unspecified purpose. Collection happens when you implicitly provide information on the website, and your data's identifiability is not covered by our label scheme."
p481
g2
sS'Another part of the company or institution does see your unspecified personal information for service operations or security. The data is personally identifiable.'
p482
g5
sS'A user can access, edit, or delete personal information in a manner not covered by our label scheme, within the scope of information explicitly provided by the user.'
p483
g19
sS'A named third party does not collect on the first party website or app your location information for an unspecified purpose. You can opt in for data collection.'
p484
g5
sS'The site collects your financial information for an unspecified purpose. Collection happens on the website, and your data is aggregated or anonymized.'
p485
g2
sS'The site collects your generic personal information for an unspecified purpose. Collection happens when you explicitly provide information on the website. You can opt in for data collection for the collection of your information.'
p486
g2
sS'A named third party does do something unspecified with your survey data for an unspecified purpose.'
p487
g5
sS'You can use privacy configuration settings (in the website or app) to control the use of contact information by the site, which uses it for a purpose outside of our label scheme.'
p488
g7
sS'The site collects your IP address or device IDs for personalization or customization. Collection happens in an unspecified way.'
p489
g2
sS'The site collects your cookies or tracking elements for advertising. Collection happens when you implicitly provide information on other websites.'
p490
g2
sS'The site collects your contact information for a basic service or feature. Collection happens when you explicitly provide information in an unspecified way for users with accounts. You can opt in for data collection for the collection of your information.'
p491
g2
sS'You can use privacy configuration settings (in your browser or on your device) to control the use of location information by the site, which collects it for an additional (non-basic) service or feature.'
p492
g7
sS'A named third party does receive unspecified information about you for a basic service or feature.'
p493
g5
sS'The site collects your website activities for an unspecified purpose. Collection happens by an unnamed service or third party.'
p494
g2
sS'The site collects your cookies or tracking elements for personalization or customization. Collection happens when you implicitly provide information in an unspecified way.'
p495
g2
sS'The site collects your cookies or tracking elements for analytics or research. Collection happens on the website. You can configure your privacy with browser settings.'
p496
g2
sS'A named third party does receive your unspecified personal information for service operations or security. The data is personally identifiable.'
p497
g5
sS'An unnamed third party does receive your survey data for an unspecified purpose. The data is aggregated or anonymized.'
p498
g5
sS'You can use third party privacy settings to control the use of cookies and tracking elements by an unspecified party for an unspecified purpose.'
p499
g7
sS'The site collects your IP address or device IDs for an unspecified purpose. Collection happens when you implicitly provide information in an unspecified way.'
p500
g2
sS'The site collects your generic personal information for an unspecified purpose. Collection happens when you explicitly provide information in an unspecified way, and your data is identifiable. You can opt in for data collection.'
p501
g2
sS'You can opt out (by contacting the company) from the use of unspecified information by the site, which uses it for an unspecified purpose.'
p502
g7
sS'The site collects your financial information for an unspecified purpose. Collection happens in an unspecified way.'
p503
g2
sS'The site collects your website activities for analytics or research. Collection happens in an unspecified way.'
p504
g2
sS'The site collects your generic personal information for personalization or customization. Collection happens when you implicitly provide information in an unspecified way.'
p505
g2
sS'You can use privacy configuration settings (in your browser or on your device) to control the use of unspecified information by an unspecified party for an unspecified purpose.'
p506
g7
sS'An unspecified third party does not receive your unspecified personal information for an unspecified purpose. The data is personally identifiable.'
p507
g5
sS'The site collects an information type outside of our label scheme for an unspecified purpose. Collection happens by other websites.'
p508
g2
sS'You can use privacy configuration settings (in the website or app) to control the use of contact information by the site, which uses it for marketing purposes.'
p509
g7
sS'The site collects your website activities for marketing purposes. Collection happens by a named service or third party.'
p510
g2
sS'An unnamed third party does track on the first party website or app your activities on the website or app for targeted advertising.'
p511
g5
sS'The site collects your cookies or tracking elements for advertising. Collection happens by some means outside of our label scheme.'
p512
g2
sS'The site collects your generic personal information for personalization or customization. Collection happens when you implicitly provide information on the website, and your data is identifiable.'
p513
g2
sS'An unnamed third party does receive your unspecified personal information for targeted advertising. The data is personally identifiable.'
p514
g5
sS'An unnamed third party does receive your cookies or tracking elements for analytics or research.'
p515
g5
sS'The site collects your IP address or device IDs for service operations or security. Collection happens when you implicitly provide information in an unspecified way.'
p516
g2
sS'The site collects your cookies or tracking elements for personalization or customization. Collection happens in an unspecified way.'
p517
g2
sS"A user's contact information is retained for a limited (but unspecified) period of time to perform a requested service, and then it is deleted.."
p518
g17
sS'The site collects your unspecified information for an unspecified purpose. Collection happens by an unnamed service or third party.'
p519
g2
sS'The site collects your demographic information for an unspecified purpose. Collection happens in an unspecified way.'
p520
g2
sS'When a change is made to the privacy policy that significantly affects data practices, users are notified in a manner outside of our label scheme. Users have no options regarding the change.'
p521
g7
sS'A named third party does track on the first party website or app your cookies or tracking elements for targeted advertising. You can configure your privacy with third-party user settings.'
p522
g5
sS'The site collects your unspecified information for a basic service or feature. Collection happens in an unspecified way.'
p523
g2
sS'The site collects your location information for advertising. Collection happens when you implicitly provide information on the website.'
p524
g2
sS'An unnamed third party does receive unspecified information about you for an additional (non-basic) service or feature. You can opt in for data collection.'
p525
g5
sS'An unnamed third party does not receive your contact information for an additional (non-basic) service or feature.'
p526
g5
sS'The site collects your generic personal information for marketing purposes. Collection happens by an unnamed service or third party, and your data is identifiable.'
p527
g2
sS'A named third party does track on the first party website or app your activities on the website or app for targeted advertising.'
p528
g5
sS'The site collects your generic personal information for a basic service or feature. Collection happens when you explicitly provide information in an unspecified way. You can opt in for data collection for the collection of your information.'
p529
g2
sS'You can opt in for the use of contact information by a third party, which collects or receives it for an unspecified purpose.'
p530
g7
sS'The site collects your cookies or tracking elements for a purpose outside of our label scheme. Collection happens when you implicitly provide information on the website, and your data is identifiable.'
p531
g2
sS'The site collects your generic personal information for marketing purposes. Collection happens on the website.'
p532
g2
sS'The site collects your generic personal information for an additional (non-basic) service or feature. Collection happens on the website.'
p533
g2
sS'The site collects your location information for advertising. Collection happens when you explicitly provide information in an unspecified way.'
p534
g2
sS'A named third party does receive your unspecified personal information for mergers or acquisitions. The data is personally identifiable.'
p535
g5
sS'You can use third party privacy settings to control the use of unspecified information by an unspecified party for advertising.'
p536
g7
sS'A user can delete their account (although the company or organization may continue to keep some data), within the scope of unspecified user information.'
p537
g19
sS'The site collects your generic personal information for advertising. Collection happens when you explicitly provide information in an unspecified way.'
p538
g2
sS'The site collects your unspecified information for a basic service or feature. Collection happens in an unspecified way, and your data is identifiable.'
p539
g2
sS'A named third party does collect on the first party website or app your cookies or tracking elements for an additional (non-basic) service or feature.'
p540
g5
sS'A named third party does receive your unspecified personal information for an unspecified purpose. You can choose not to use the service or feature.'
p541
g5
sS'Another part of the company or institution does not do something outside of our label scheme with your unspecified personal information for a basic service or feature. The data is personally identifiable.'
p542
g5
sS'You can make no specified choices about the use of unspecified information by the site, which uses it for a basic service or feature.'
p543
g7
sS'The site collects your survey data for an unspecified purpose. Collection happens when you explicitly provide information by some means outside of our label scheme.'
p544
g2
sS'The site collects your demographic information for a basic service or feature. Collection happens when you explicitly provide information in an unspecified way.'
p545
g2
sS'An unnamed third party does not receive your unspecified personal information for an unspecified purpose.'
p546
g5
sS'The site collects your generic personal information for service operations or security. Collection happens on the website.'
p547
g2
sS'The site collects your contact information for a basic service or feature. Collection happens in an unspecified way.'
p548
g2
sS'The site does not collect your unspecified information for an unspecified purpose. Collection happens when you explicitly provide information in an unspecified way, and your data is identifiable.'
p549
g2
sS'An unnamed third party does collect on the first party website or app your computer information for an unspecified purpose.'
p550
g5
sS'The site collects your contact information for an additional (non-basic) service or feature. Collection happens by some means outside of our label scheme.'
p551
g2
sS'An unnamed third party does track on the first party website or app your cookies or tracking elements for an unspecified purpose.'
p552
g5
sS'The site collects your cookies or tracking elements for analytics or research. Collection happens on the website.'
p553
g2
sS'A named third party does collect on the first party website or app your unspecified personal information for an unspecified purpose.'
p554
g5
sS'The site collects your website activities for an unspecified purpose. Collection happens when you implicitly provide information in an unspecified way.'
p555
g2
sS'An unnamed third party does receive your unspecified personal information for mergers or acquisitions.'
p556
g5
sS'The site collects your contact information for an unspecified purpose. Collection happens when you explicitly provide information in an unspecified way for users with accounts.'
p557
g2
sS'You can opt out (via a link) from the use of unspecified information by the site, which uses it for marketing purposes.'
p558
g7
sS'The site collects your computer information for an unspecified purpose. Collection happens on the website, and your data is aggregated or anonymized.'
p559
g2
sS'The site collects your generic personal information for an additional (non-basic) service or feature. Collection happens when you explicitly provide information in an unspecified way, and your data is identifiable. You can opt in for data collection for the collection of your information.'
p560
g2
sS'A user with an account can opt out (by contacting the company) from the use of contact information by the site, which uses it for marketing purposes.'
p561
g7
sS'An unnamed third party does receive your unspecified personal information for an unspecified purpose. The data is personally identifiable.'
p562
g5
sS'The site collects your generic personal information for a basic service or feature. Collection happens when you explicitly provide information on the website for users with accounts, and your data is identifiable.'
p563
g2
sS'The site collects your generic personal information for a basic service or feature. Collection happens when you explicitly provide information in an unspecified way, and your data is identifiable.'
p564
g2
sS'The site collects your unspecified information for personalization or customization. Collection happens when you implicitly provide information in an unspecified way for users with accounts.'
p565
g2
sS'The site does not collect your generic personal information for an unspecified purpose. Collection happens in an unspecified way.'
p566
g2
sS'The site collects your user profile for personalization or customization. Collection happens when you implicitly provide information on the website for users with accounts, and your data is identifiable.'
p567
g2
sS'You can make a choice about your privacy not described by our label scheme the use of unspecified information by a third party, which collects or receives it for an unspecified purpose.'
p568
g7
sS'A named third party does do something unspecified with your unspecified personal information for an unspecified purpose. The data is personally identifiable.'
p569
g5
sS'The site collects your computer information for analytics or research. Collection happens on the website.'
p570
g2
sS'An unnamed third party does receive unspecified information about you for an unspecified purpose. The data is personally identifiable.'
p571
g5
sS'The site collects your demographic information for an unspecified purpose. Collection happens in an unspecified way, and your data is aggregated or anonymized.'
p572
g2
sS'The site collects your website activities for marketing purposes. Collection happens when you implicitly provide information by an unnamed service or third party.'
p573
g2
sS'You can opt out (by contacting the company) from the use of generic personal information by the site, which uses it for an unspecified purpose.'
p574
g7
sS'The site collects your cookies or tracking elements for personalization or customization. Collection happens when you implicitly provide information on the website.'
p575
g2
sS'An unnamed third party does track on the first party website or app unspecified information about you for targeted advertising.'
p576
g5
sS'A user can edit their information, within the scope of unspecified user information.'
p577
g19
sS'The site collects your website activities for an unspecified purpose. Collection happens when you implicitly provide information on the website, and your data is aggregated or anonymized.'
p578
g2
sS'The site collects your generic personal information for an unspecified purpose. Collection happens when you implicitly provide information in an unspecified way. You can choose not to use the service or feature for the collection and use of your information.'
p579
g2
sS'The site collects your cookies or tracking elements for an unspecified purpose. Collection happens when you explicitly provide information on the website. You can configure your privacy with browser settings.'
p580
g2
sS'An unnamed third party does track on the first party website or app your cookies or tracking elements for an unspecified purpose. The data is aggregated or anonymized.'
p581
g5
sS'The site does not collect your location information for an unspecified purpose. Collection happens when you explicitly provide information on the website.'
p582
g2
sS'The public does see your user profile for marketing purposes. This applies to users with accounts. You can opt in for data collection.'
p583
g5
sS'The site does not collect your contact information for an unspecified purpose. Collection happens when you explicitly provide information in an unspecified way. You can opt in for data collection for the collection of your information.'
p584
g2
sS'The site collects your website activities for an unspecified purpose. Collection happens by other websites.'
p585
g2
sS'The site collects your generic personal information for an additional (non-basic) service or feature. Collection happens on the website. You can choose not to use the service or feature.'
p586
g2
sS'The public does do something outside of our label scheme with unspecified information about you for an unspecified purpose. You can opt in for data collection for the collection or sharing and use of your information.'
p587
g5
sS'An unnamed third party does not receive your contact information for an unspecified purpose. This applies to users without accounts.'
p588
g5
sS'The site collects your generic personal information for analytics or research. Collection happens in an unspecified way.'
p589
g2
sS'You can opt out (by contacting the company) from the use of unspecified information by a third party, which uses it for marketing purposes.'
p590
g7
sS'The site collects your unspecified information for advertising. Collection happens when you implicitly provide information by some means outside of our label scheme.'
p591
g2
sS"When a change of an unspecified nature is made to the privacy policy, the policy date is updated or information about the change is posted as part of the policy. Users' choices regarding policy changes are not mentioned or are unclear."
p592
g7
sS'The site collects your website activities for an unspecified purpose. Collection happens by some means outside of our label scheme.'
p593
g2
sS'An unspecified third party does receive your unspecified personal information for legal requirements.'
p594
g5
sS'An unnamed third party does receive your cookies or tracking elements for service operations or security.'
p595
g5
sS'The site collects your website activities for advertising. Collection happens in an unspecified way.'
p596
g2
sS'The public does see unspecified information about you for marketing purposes. This applies to users with accounts. You can opt in for data collection.'
p597
g5
sS'The site collects your cookies or tracking elements for an unspecified purpose. Collection happens in an unspecified way.'
p598
g2
sS'The site collects your generic personal information for marketing purposes. Collection happens when you implicitly provide information in an unspecified way.'
p599
g2
sS'The site collects your unspecified information for analytics or research. Collection happens when you implicitly provide information by some means outside of our label scheme.'
p600
g2
sS'The site collects your website activities for advertising. Collection happens by a named service or third party, and your data is aggregated or anonymized.'
p601
g2
sS'A named third party does track on the first party website or app your IP address or device IDs for targeted advertising.'
p602
g5
sS'An unnamed third party does do something unspecified with your cookies or tracking elements for an unspecified purpose.'
p603
g5
sS'An unnamed third party does receive your unspecified personal information for an unspecified purpose. The data is aggregated or anonymized.'
p604
g5
sS'An unnamed third party does receive your unspecified personal information for analytics or research. The data is aggregated or anonymized.'
p605
g5
sS'An unnamed third party does receive unspecified information about you for an unspecified purpose. This applies to a user type outside of our label scheme. You can opt in for data collection for the collection or sharing of your information.'
p606
g5
sS'Users with accounts can deactivate their account, within the scope of information explicitly provided by the user.'
p607
g19
sS'The site collects your demographic information for an unspecified purpose. Collection happens on the website, and your data is identifiable.'
p608
g2
sS'The site collects your location information for an unspecified purpose. Collection happens when you implicitly provide information on the website, and your data is aggregated or anonymized.'
p609
g2
sS'The site collects your website activities for analytics or research. Collection happens on the website.'
p610
g2
sS'A named third party does not collect on the first party website or app your unspecified personal information for an unspecified purpose. The data is personally identifiable. You can opt in for data collection.'
p611
g5
sS'A named third party does receive your unspecified personal information for targeted advertising.'
p612
g5
sS'The site collects your cookies or tracking elements for an additional (non-basic) service or feature. Collection happens by a named service or third party.'
p613
g2
sS'The site collects your cookies or tracking elements for an unspecified purpose. Collection happens when you implicitly provide information on the website.'
p614
g2
sS'The site collects your user profile for a basic service or feature. Collection happens in an unspecified way.'
p615
g2
sS'The site collects your survey data for analytics or research. Collection happens on the website.'
p616
g2
sS'An unnamed third party does track on the first party website or app your computer information for analytics or research.'
p617
g5
sS'When a change of a variety outside of our label scheme is made to the privacy policy, users are notified in a manner outside of our label scheme. Users must agree before their data is treated according to the new privacy policy.'
p618
g7
sS'An unnamed third party does not do something unspecified with your unspecified personal information for an unspecified purpose. You can opt in for data collection.'
p619
g5
sS'You can opt out (via a link) from the use of contact information by the site, which uses it for a purpose outside of our label scheme.'
p620
g7
sS'The site collects your generic personal information for advertising. Collection happens in an unspecified way.'
p621
g2
sS'The site collects your unspecified information for marketing purposes. Collection happens by an unnamed service or third party.'
p622
g2
sS'Other users does receive your user profile for an unspecified purpose.'
p623
g5
sS'A user can view their information, within the scope of information the company has learned about the user.'
p624
g19
sS'The site collects your unspecified information for advertising. Collection happens in an unspecified way.'
p625
g2
sS'The site collects your unspecified information for analytics or research. Collection happens in an unspecified way.'
p626
g2
sS'The site collects an information type outside of our label scheme for an unspecified purpose. Collection happens by some means outside of our label scheme.'
p627
g2
sS'A named third party does receive unspecified information about you for an unspecified purpose. This applies to a user type outside of our label scheme. You can opt in for data collection for the collection or sharing of your information.'
p628
g5
sS'The site collects your location information for advertising. Collection happens when you explicitly provide information by some means outside of our label scheme.'
p629
g2
sS'An unnamed third party does do something outside of our label scheme with your computer information for analytics or research.'
p630
g5
sS'A named third party does receive unspecified information about you for targeted advertising.'
p631
g5
sS'The site collects your computer information for an unspecified purpose. Collection happens when you implicitly provide information on the website, and your data is aggregated or anonymized.'
p632
g2
sS'The site collects your IP address or device IDs for advertising. Collection happens when you implicitly provide information on the website.'
p633
g2
sS'The site collects your IP address or device IDs for an additional (non-basic) service or feature. Collection happens by a named service or third party.'
p634
g2
sS'The site collects your contact information for a basic service or feature. Collection happens when you explicitly provide information on the website, and your data is identifiable. You can opt out using the provided link for the use of your information.'
p635
g2
sS'The site collects your demographic information for analytics or research. Collection happens on the website.'
p636
g2
sS'An unnamed third party does do something outside of our label scheme with unspecified information about you for mergers or acquisitions.'
p637
g5
sS'The site collects your computer information for an unspecified purpose. Collection happens when you implicitly provide information in an unspecified way, and your data is aggregated or anonymized.'
p638
g2
sS'An unnamed third party does receive your activities on the website or app for an unspecified purpose.'
p639
g5
sS'The site collects your website activities for personalization or customization. Collection happens when you implicitly provide information on the website.'
p640
g2
sS'The public does see your user profile for a purpose outside of our label scheme. This applies to users with accounts. You can opt in for data collection.'
p641
g5
sS'The site collects your generic personal information for analytics or research. Collection happens when you explicitly provide information in an unspecified way for users with accounts.'
p642
g2
sS'The site collects your cookies or tracking elements for an unspecified purpose. Collection happens by other websites.'
p643
g2
sS'The site collects your cookies or tracking elements for an unspecified purpose. Collection happens by some means outside of our label scheme.'
p644
g2
sS'The site collects your cookies or tracking elements for a basic service or feature. Collection happens on the website. You can configure your privacy with third-party user settings.'
p645
g2
sS'A user can access, edit, or delete personal information in a manner not covered by our label scheme, within the scope of unspecified user information.'
p646
g19
sS'An unnamed third party does receive your contact information for marketing purposes. This applies to a user type outside of our label scheme. You can opt out by contacting the company for the collection or sharing of your information.'
p647
g5
sS'A named third party does do something outside of our label scheme with your IP address or device IDs for targeted advertising. You can configure your privacy with third-party user settings.'
p648
g5
sS'The site collects your location information for an unspecified purpose. Collection happens when you implicitly provide information in an unspecified way, and your data is aggregated or anonymized.'
p649
g2
sS'The site collects your contact information for service operations or security. Collection happens on the website, and your data is identifiable.'
p650
g2
sS'An unnamed third party does collect on the first party website or app your computer information for targeted advertising.'
p651
g5
sS'An unnamed third party does receive your unspecified personal information for a basic service or feature.'
p652
g5
sS'The site collects your generic personal information for an additional (non-basic) service or feature. Collection happens when you explicitly provide information on the website, and your data is identifiable.'
p653
g2
sS"A user's unspecified information is retained for an unspecified duration to perform a requested service, and then it is deleted.."
p654
g17
sS'The site collects your financial information for a basic service or feature. Collection happens when you explicitly provide information in an unspecified way, and your data is identifiable.'
p655
g2
sS'The site collects your unspecified information for an unspecified purpose. Collection happens when you explicitly provide information in an unspecified way for users with accounts, and your data is aggregated or anonymized. You can opt in for data collection for the collection of your information.'
p656
g2
sS'The site collects your cookies or tracking elements for analytics or research. Collection happens in an unspecified way. You can configure your privacy with browser settings.'
p657
g2
sS'The site collects your survey data for an unspecified purpose. Collection happens in an unspecified way.'
p658
g2
sS'A user with an account can make no specified choices about the use of information of a type not covered by our label scheme by a third party, which collects or receives it for an additional (non-basic) service or feature.'
p659
g7
sS'An unnamed third party does receive unspecified information about you for targeted advertising.'
p660
g5
sS'An unnamed third party does receive your financial information for a basic service or feature. The data is personally identifiable. You can choose not to use the service or feature.'
p661
g5
sS'The site collects your unspecified information for advertising. Collection happens on other websites.'
p662
g2
sS"When a change is made to the privacy policy that significantly affects data practices, users are personally notified. Users' choices regarding policy changes are not mentioned or are unclear."
p663
g7
sS'An unnamed third party does receive your cookies or tracking elements for an unspecified purpose.'
p664
g5
sS'You can opt out (via a link) from the use of unspecified information by a third party, which collects or receives it for advertising.'
p665
g7
sS'A user can edit their information, within the scope of information explicitly provided by the user.'
p666
g19
sS'An unnamed third party does collect on the first party website or app your location information for targeted advertising.'
p667
g5
sS'An unnamed third party does do something outside of our label scheme with your location information for analytics or research.'
p668
g5
sS'Another part of the company or institution does receive your unspecified personal information for an unspecified purpose.'
p669
g5
sS'The policy makes a statement about how data from children is treated.'
p670
g19
sS'The site collects your generic personal information for a basic service or feature. Collection happens when you explicitly provide information in an unspecified way for users with accounts. You can opt in for data collection for the collection of your information.'
p671
g2
sS'The site collects your user profile for an unspecified purpose. Collection happens by some means outside of our label scheme.'
p672
g2
sS'You can opt in for the use of information of a type not covered by our label scheme by a third party, which collects or receives it for an unspecified purpose.'
p673
g7
sS'An unnamed third party does not receive your survey data for analytics or research.'
p674
g5
sS'The site collects your unspecified information for marketing purposes. Collection happens by an unnamed service or third party, and your data is identifiable.'
p675
g2
sS'The site collects your website activities for service operations or security. Collection happens when you implicitly provide information in an unspecified way.'
p676
g2
sS'The site collects your generic personal information for an unspecified purpose. Collection happens when you implicitly provide information in an unspecified way. You can opt in for data collection.'
p677
g2
sS'You can opt in for the use of generic personal information by the site, which collects it for an unspecified purpose.'
p678
g7
sS'An unnamed third party does receive unspecified information about you for a basic service or feature. The data is personally identifiable.'
p679
g5
sS'The site collects your generic personal information for a basic service or feature. Collection happens when you implicitly provide information in an unspecified way.'
p680
g2
sS'The site collects your unspecified information for a basic service or feature. Collection happens on the website.'
p681
g2
sS'The site collects your cookies or tracking elements for analytics or research. Collection happens in an unspecified way.'
p682
g2
sS'An unspecified third party does not receive unspecified information about you for an unspecified purpose. The data is personally identifiable.'
p683
g5
sS'An unnamed third party does receive your unspecified personal information for analytics or research. The data is personally identifiable.'
p684
g5
sS'The public does receive your unspecified personal information for an additional (non-basic) service or feature. You can opt in for data collection.'
p685
g5
sS'The site collects your cookies or tracking elements for an unspecified purpose. Collection happens when you implicitly provide information in an unspecified way. You can configure your privacy with browser settings.'
p686
g2
sS'An unnamed third party does track on the first party website or app your cookies or tracking elements for personalization or customization.'
p687
g5
sS"The site collects your demographic information for an unspecified purpose. Collection happens when you explicitly provide information in an unspecified way, and your data's identifiability is not covered by our label scheme."
p688
g2
sS'You can opt out (via a link) from the use of unspecified information by an unspecified party for advertising.'
p689
g7
sS'The site collects your website activities for marketing purposes. Collection happens when you implicitly provide information in an unspecified way.'
p690
g2
sS'A named third party does do something outside of our label scheme with your cookies or tracking elements for targeted advertising. You can configure your privacy with third-party user settings.'
p691
g5
sS'The site collects your unspecified information for an unspecified purpose. Collection happens when you explicitly provide information on the website. You can opt in for data collection.'
p692
g2
sS'An unnamed third party does receive your unspecified personal information for marketing purposes.'
p693
g5
sS'The site collects your website activities for advertising. Collection happens when you implicitly provide information in an unspecified way.'
p694
g2
sS'An unnamed third party does do something outside of our label scheme with your activities on the website or app for analytics or research.'
p695
g5
sS'Other users does receive your activities on the website or app for an unspecified purpose. The data is personally identifiable. You can opt in for data collection.'
p696
g5
sS'The site collects your generic personal information for a basic service or feature. Collection happens in an unspecified way.'
p697
g2
sS'A named third party does track on the first party website or app your location information for targeted advertising.'
p698
g5
sS'The site collects your computer information for a basic service or feature. Collection happens in an unspecified way.'
p699
g2
sS'The site collects your unspecified information for personalization or customization. Collection happens when you implicitly provide information on the website, and your data is aggregated or anonymized.'
p700
g2
sS'You can make no specified choices about the use of unspecified information by an unspecified party for an unspecified purpose.'
p701
g7
sS"A user's contact information is retained for an unspecified duration to perform a requested service, and then it is deleted.."
p702
g17
sS'You can opt out (via a link) from the use of contact information by the site, which uses it for an additional (non-basic) service or feature.'
p703
g7
sS'The site collects your cookies or tracking elements for marketing purposes. Collection happens when you implicitly provide information on other websites.'
p704
g2
sS'The site collects your IP address or device IDs for an unspecified purpose. Collection happens in the mobile app.'
p705
g2
sS'An unnamed third party does track on the first party website or app your cookies or tracking elements for an unspecified purpose. You can opt out using the provided link.'
p706
g5
sS'A named third party does receive your financial information for an unspecified purpose.'
p707
g5
sS'The site collects your unspecified information for advertising. Collection happens on the website.'
p708
g2
sS'The site collects your contact information for an additional (non-basic) service or feature. Collection happens when you explicitly provide information in an unspecified way for users without accounts. You can opt in for data collection for the collection of your information.'
p709
g2
sS"When a change of an unspecified nature is made to the privacy policy, users are personally notified. Users' choices regarding policy changes are not mentioned or are unclear."
p710
g7
sS'An unspecified third party does receive unspecified information about you for mergers or acquisitions. The data is personally identifiable.'
p711
g5
sS"A user's unspecified information is retained for a limited (but unspecified) period of time to perform a requested service, and then it is deleted.."
p712
g17
sS'The site collects your generic personal information for an unspecified purpose. Collection happens when you implicitly provide information in an unspecified way. You can choose not to use the service or feature.'
p713
g2
sS'Users with accounts can access, edit, or delete personal information in an unspecified manner, within the scope of transactional data (e.g., online activity, purchases).'
p714
g19
sS'The site collects your website activities for an unspecified purpose. Collection happens when you implicitly provide information on the website.'
p715
g2
sS'The site collects your unspecified information for an additional (non-basic) service or feature. Collection happens on the website.'
p716
g2
sS'A user with an account can opt in for the use of user profile by a third party, which collects or receives it for an additional (non-basic) service or feature.'
p717
g7
sS'The site collects an information type outside of our label scheme for personalization or customization. Collection happens when you explicitly provide information on the website, and your data is identifiable.'
p718
g2
sS'The site collects your cookies or tracking elements for an unspecified purpose. Collection happens when you implicitly provide information in an unspecified way. You can opt out using the provided link.'
p719
g2
sS'Other users does do something outside of our label scheme with unspecified information about you for an additional (non-basic) service or feature.'
p720
g5
sS'When a change of an unspecified nature is made to the privacy policy, users are notified when visiting the website. Users can participate in a process to influence the change.'
p721
g7
sS'A named third party does track on the first party website or app your computer information for targeted advertising.'
p722
g5
sS'You can opt out (via a link) from the use of unique personal identifier by a third party, which collects or receives it for an unspecified purpose.'
p723
g7
sS'The site collects your contact information for personalization or customization. Collection happens when you implicitly provide information by an unnamed service or third party, and your data is identifiable.'
p724
g2
sS'The site collects your generic personal information for marketing purposes. Collection happens when you implicitly provide information by an unnamed service or third party, and your data is identifiable.'
p725
g2
sS'An unnamed third party does do something unspecified with your cookies or tracking elements for targeted advertising. You can make a choice about the use of your information.'
p726
g5
sS'An unspecified third party does receive your unspecified personal information for a purpose outside of our label scheme.'
p727
g5
sS'An unnamed third party does receive unspecified information about you for service operations or security.'
p728
g5
sS'A third party outside of our label scheme does receive unspecified information about you for mergers or acquisitions.'
p729
g5
sS'A named third party does not collect on the first party website or app your contact information for an unspecified purpose. You can opt in for data collection.'
p730
g5
sS'You can opt out (by contacting the company) from the use of generic personal information by a third party, which collects or receives it for marketing purposes.'
p731
g7
sS'A named third party does track on the first party website or app your cookies or tracking elements for targeted advertising. You can configure your privacy with third-party user settings for the use of your information.'
p732
g5
sS'An unnamed third party does track on the first party website or app your cookies or tracking elements for targeted advertising.'
p733
g5
sS'You can opt in for the use of generic personal information by the site, which uses it for an unspecified purpose.'
p734
g7
sS'The site collects your website activities for a basic service or feature. Collection happens in an unspecified way, and your data is aggregated or anonymized.'
p735
g2
sS'The site collects an information type outside of our label scheme for service operations or security. Collection happens in an unspecified way.'
p736
g2
sS'The site collects your demographic information for marketing purposes. Collection happens when you implicitly provide information by an unnamed service or third party.'
p737
g2
sS'An unspecified third party does receive unspecified information about you for an unspecified purpose. The data is aggregated or anonymized.'
p738
g5
sS'You can opt out (via a link) from the use of unspecified information by a third party, which collects or receives it for an unspecified purpose.'
p739
g7
sS'Data is accessible to employees/third parties on a need-to-know basis.'
p740
g17
sS'The site collects your demographic information for a basic service or feature. Collection happens when you explicitly provide information in an unspecified way for users with accounts. You can opt in for data collection for the collection of your information.'
p741
g2
sS'A named third party does not track on the first party website or app your unspecified personal information for an unspecified purpose.'
p742
g5
sS'An unnamed third party does track on the first party website or app your activities on the website or app for a basic service or feature.'
p743
g5
sS'When a change is made to the privacy policy that significantly affects data practices, users are personally notified. Users have no options regarding the change.'
p744
g7
sS'A user can delete their account (with the company or organization removing all data), within the scope of information the company has learned about the user.'
p745
g19
sS'An unnamed third party does receive your IP address or device IDs for an unspecified purpose.'
p746
g5
sS'An unnamed third party does not receive your unspecified personal information for targeted advertising.'
p747
g5
sS'The site collects your unspecified information for analytics or research. Collection happens when you implicitly provide information in an unspecified way.'
p748
g2
sS'The site collects your cookies or tracking elements for an unspecified purpose. Collection happens when you implicitly provide information in an unspecified way, and your data is aggregated or anonymized.'
p749
g2
sS'The site collects your generic personal information for marketing purposes. Collection happens in an unspecified way. You can make a choice about the use of your information.'
p750
g2
sS'The site collects your generic personal information for advertising. Collection happens when you implicitly provide information in an unspecified way.'
p751
g2
sS"When a minor change is made to the privacy policy that does not significantly affect data practices, the policy date is updated or information about the change is posted as part of the policy. Users' choices regarding policy changes are not mentioned or are unclear."
p752
g7
sS'The site collects your social media data for an unspecified purpose. Collection happens when you implicitly provide information by other websites.'
p753
g2
sS'The site collects your generic personal information for an unspecified purpose. Collection happens in an unspecified way. You can opt in for data collection for the use of your information.'
p754
g2
sS'The site collects your cookies or tracking elements for a basic service or feature. Collection happens when you implicitly provide information in an unspecified way.'
p755
g2
sS'A user can access, edit, or delete personal information in an unspecified manner, within the scope of transactional data (e.g., online activity, purchases).'
p756
g19
sS'The site collects your generic personal information for legal requirements. Collection happens on the website, and your data is identifiable.'
p757
g2
sS'The site collects your unspecified information for a purpose outside of our label scheme. Collection happens by an unnamed service or third party.'
p758
g2
sS'The site collects your contact information for an unspecified purpose. Collection happens on the website, and your data is identifiable.'
p759
g2
sS'The site collects your user profile for advertising. Collection happens when you explicitly provide information by some means outside of our label scheme.'
p760
g2
sS'The site collects your computer information for an unspecified purpose. Collection happens on the website.'
p761
g2
sS'The site collects your generic personal information for personalization or customization. Collection happens in an unspecified way. You can make a choice about the use of your information.'
p762
g2
sS'The site collects your cookies or tracking elements for a basic service or feature. Collection happens in an unspecified way, and your data is aggregated or anonymized.'
p763
g2
sS'You can choose not to use a service or feature to avoid the use of unspecified information by the site, which collects it for a basic service or feature.'
p764
g7
sS'Other users does receive your activities on the website or app for an additional (non-basic) service or feature. You can opt in for data collection.'
p765
g5
sS'A named third party does receive your unspecified personal information for targeted advertising. The data is personally identifiable.'
p766
g5
sS'The site collects your demographic information for a basic service or feature. Collection happens in an unspecified way, and your data is aggregated or anonymized.'
p767
g2
sS'The site collects your IP address or device IDs for an unspecified purpose. Collection happens when you implicitly provide information on the website, and your data is aggregated or anonymized.'
p768
g2
sS'You can opt out (via a link) from the use of contact information by the site, which uses it for marketing purposes.'
p769
g7
sS'An unnamed third party does receive your user profile for targeted advertising. The data is aggregated or anonymized.'
p770
g5
sS'The site collects your demographic information for a basic service or feature. Collection happens when you explicitly provide information on the website, and your data is identifiable.'
p771
g2
sS'The site does not collect your contact information for an unspecified purpose. Collection happens when you explicitly provide information on the website.'
p772
g2
sS'The site collects your demographic information for a basic service or feature. Collection happens on the website for users with accounts. You can opt in for data collection.'
p773
g2
sS"When a change is made to the privacy policy that significantly affects data practices, users are notified when visiting the website. Users' choices regarding policy changes are not mentioned or are unclear."
p774
g7
sS'The site collects your generic personal information for an unspecified purpose. Collection happens when you explicitly provide information in an unspecified way for users with accounts.'
p775
g2
sS'The site collects your demographic information for a basic service or feature. Collection happens on the website.'
p776
g2
sS'An unnamed third party does collect on the first party website or app your activities on the website or app for targeted advertising.'
p777
g5
sS'The site collects your unspecified information for an unspecified purpose. Collection happens when you explicitly provide information in an unspecified way.'
p778
g2
sS'The site collects your unspecified information for an additional (non-basic) service or feature. Collection happens in an unspecified way, and your data is identifiable.'
p779
g2
sS'The site collects your location information for an unspecified purpose. Collection happens when you implicitly provide information in an unspecified way.'
p780
g2
sS'The site collects an information type outside of our label scheme for analytics or research. Collection happens in an unspecified way for a user type outside of our label scheme. You can choose not to use the service or feature.'
p781
g2
sS'The site collects your generic personal information for marketing purposes. Collection happens in an unspecified way. You can choose not to use the service or feature.'
p782
g2
sS'You can opt out (by contacting the company) from the use of unspecified information by the site, which uses it for marketing purposes.'
p783
g7
sS'You can make no specified choices about the use of contact information by the site, which uses it for marketing purposes.'
p784
g7
sS'You can make no specified choices about the use of contact information by the site, which uses it for a purpose outside of our label scheme.'
p785
g7
sS'An unnamed third party does not do something outside of our label scheme with your unspecified personal information for a basic service or feature. The data is personally identifiable.'
p786
g5
sS'A named third party does track on the first party website or app your cookies or tracking elements for targeted advertising.'
p787
g5
sS'The site collects your generic personal information for a basic service or feature. Collection happens by some means outside of our label scheme.'
p788
g2
sS'An unnamed third party does receive your unspecified personal information for service operations or security.'
p789
g5
sS'The site collects your website activities for analytics or research. Collection happens by some means outside of our label scheme.'
p790
g2
sS'The site collects your cookies or tracking elements for personalization or customization. Collection happens when you implicitly provide information on the website for users with accounts, and your data is identifiable.'
p791
g2
sS'The site collects your generic personal information for marketing purposes. Collection happens when you explicitly provide information in an unspecified way for users with accounts.'
p792
g2
sS'An unnamed third party does receive your contact information for targeted advertising. The data is personally identifiable. You can opt out by contacting the company.'
p793
g5
sS'The site collects your contact information for an unspecified purpose. Collection happens when you explicitly provide information on the website, and your data is identifiable.'
p794
g2
sS'An unnamed third party does collect on the first party website or app your unspecified personal information for an unspecified purpose. The data is personally identifiable.'
p795
g5
sS'The site collects your website activities for an unspecified purpose. Collection happens in an unspecified way, and your data is aggregated or anonymized.'
p796
g2
sS'The site collects your generic personal information for an unspecified purpose. Collection happens when you explicitly provide information on the website, and your data is identifiable.'
p797
g2
sS'The site collects your generic personal information for personalization or customization. Collection happens when you explicitly provide information in an unspecified way, and your data is identifiable.'
p798
g2
sS'A user with an account can opt out (by contacting the company) from the use of contact information by a third party, which collects or receives it for marketing purposes.'
p799
g7
sS'An unnamed third party does receive your unspecified personal information for a basic service or feature. The data is personally identifiable.'
p800
g5
sS'An unnamed third party does receive your cookies or tracking elements for targeted advertising.'
p801
g5
sS'The site collects your IP address or device IDs for a basic service or feature. Collection happens in the mobile app.'
p802
g2
sS"A user's unspecified information is retained for an unspecified duration to meet legal or law enforcement requirements, and then it is deleted.."
p803
g17
sS'You can choose not to use a service or feature to avoid the use of generic personal information by the site, which collects it for an unspecified purpose.'
p804
g7
sS'An unnamed third party does not receive your contact information for an unspecified purpose. You can opt in for data collection.'
p805
g5
sS'The public does see unspecified information about you for an unspecified purpose. You can opt in for data collection for the use of your information.'
p806
g5
sS'An unnamed third party does not receive your contact information for an unspecified purpose.'
p807
g5
sS'The site collects your contact information for a purpose outside of our label scheme. Collection happens by some means outside of our label scheme. You can configure your privacy using a method outside our label scheme for the use of your information.'
p808
g2
sS'Users with accounts can edit their information, within the scope of information the company has learned about the user.'
p809
g19
sS'The site collects your social media data for an additional (non-basic) service or feature. Collection happens by an unnamed service or third party.'
p810
g2
sS'The policy makes a statement about data from a demographic outside of our label scheme.'
p811
g19
s.