(lp0
(dp1
S'raw_text'
p2
V Amazon.com Privacy Notice
p3
sS'annotation_id'
p4
S'9602'
p5
sS'dimension'
p6
S'Other'
p7
sS'label'
p8
S'The text introduces the policy, a section, or a group of practices, but it does not mention a specific practice.'
p9
sa(dp10
g2
V Last updated: March 3, 2014. To see what has changed, click here. click here. click here.
p11
sg4
S'9603'
p12
sg6
S'Policy Change'
p13
sg8
S"When a change of an unspecified nature is made to the privacy policy, the policy date is updated or information about the change is posted as part of the policy. Users' choices regarding policy changes are not mentioned or are unclear."
p14
sa(dp15
g2
V click here. click here. click here.
p16
sg4
S'9608'
p17
sg6
S'Policy Change'
p18
sg8
S"When a change of an unspecified nature is made to the privacy policy, the policy date is updated or information about the change is posted as part of the policy. Users' choices regarding policy changes are not mentioned or are unclear."
p19
sa(dp20
g2
V This notice describes our privacy policy.
p21
sg4
S'9605'
p22
sg6
S'Other'
p23
sg8
S'The text introduces the policy, a section, or a group of practices, but it does not mention a specific practice.'
p24
sa(dp25
g2
V By visiting Amazon.com, you are accepting the practices described in this Privacy Notice. By visiting Amazon.com, you are accepting the practices described in this Privacy Notice. By visiting Amazon.com, you are accepting the practices described in this Privacy Notice. By visiting Amazon.com, you are accepting the practices described in this Privacy Notice.
p26
sg4
S'9607'
p27
sg6
S'User Choice/Control'
p28
sg8
S'You can choose not to use a service or feature to avoid the use of unspecified information by an unspecified party for an unspecified purpose.'
p29
sa(dp30
g2
V The information we learn from customers helps us personalize and continually improve your Amazon experience. The information we learn from customers helps us personalize and continually improve your Amazon experience. The information we learn from customers helps us personalize and continually improve your Amazon experience. The information we learn from customers helps us personalize and continually improve your Amazon experience. The information we learn from customers helps us personalize and continually improve your Amazon experience.
p31
sg4
S'9611'
p32
sg6
S'First Party Collection/Use'
p33
sg8
S'The site collects your unspecified information for personalization or customization. Collection happens when you implicitly provide information in an unspecified way.'
p34
sa(dp35
g2
V store any information you enter on our Web site or give us in any other way. Click here to see examples of what we collect.
p36
sg4
S'9632'
p37
sg6
S'Data Retention'
p38
sg8
S"A user's information of a type not covered by our label scheme is retained for an unspecified duration to fulfill an unspecified purpose."
p39
sa(dp40
g2
V any information you enter on our Web site or any information you enter on our Web site or give us in any other way We receive and store for such purposes as You can choose not to provide certain information, but then you might not be able to take advantage of many of our features You can choose not to provide certain information,
p41
sg4
S'9643'
p42
sg6
S'First Party Collection/Use'
p43
sg8
S'The site collects an information type outside of our label scheme for a purpose outside of our label scheme. Collection happens on the website. You can make a choice about the collection of your information.'
p44
sa(dp45
g2
V any information you enter on our Web site or any information you enter on our Web site or any information you enter on our Web site or give us in any other way We receive and store responding to your requests You can choose not to provide certain information, but then you might not be able to take advantage of many of our features You can choose not to provide certain information,
p46
sg4
S'9644'
p47
sg6
S'First Party Collection/Use'
p48
sg8
S'The site collects an information type outside of our label scheme for an additional (non-basic) service or feature. Collection happens when you explicitly provide information on the website. You can make a choice about the collection of your information.'
p49
sa(dp50
g2
V any information you enter on our Web site or any information you enter on our Web site or any information you enter on our Web site or give us in any other way We receive and store customizing future shopping for you You can choose not to provide certain information, but then you might not be able to take advantage of many of our features You can choose not to provide certain information,
p51
sg4
S'9645'
p52
sg6
S'First Party Collection/Use'
p53
sg8
S'The site collects an information type outside of our label scheme for personalization or customization. Collection happens when you explicitly provide information on the website. You can make a choice about the collection of your information.'
p54
sa(dp55
g2
V any information you enter on our Web site or any information you enter on our Web site or any information you enter on our Web site or give us in any other way We receive and store improving our stores You can choose not to provide certain information, but then you might not be able to take advantage of many of our features You can choose not to provide certain information,
p56
sg4
S'9646'
p57
sg6
S'First Party Collection/Use'
p58
sg8
S'The site collects an information type outside of our label scheme for a purpose outside of our label scheme. Collection happens when you explicitly provide information on the website. You can make a choice about the collection of your information.'
p59
sa(dp60
g2
V any information you enter on our Web site or any information you enter on our Web site or any information you enter on our Web site or give us in any other way We receive and store communicating with you You can choose not to provide certain information, but then you might not be able to take advantage of many of our features You can choose not to provide certain information,
p61
sg4
S'9647'
p62
sg6
S'First Party Collection/Use'
p63
sg8
S'The site collects an information type outside of our label scheme for a basic service or feature. Collection happens when you explicitly provide information on the website. You can make a choice about the collection of your information.'
p64
sa(dp65
g2
V store certain types of information whenever you interact with us. Click here to see examples of the information we receive.
p66
sg4
S'9634'
p67
sg6
S'Data Retention'
p68
sg8
S"A user's information of a type not covered by our label scheme is retained for an unspecified duration to fulfill an unspecified purpose."
p69
sa(dp70
g2
V whenever you interact with us Click here to see examples of the information we receive. We receive and store We receive and store certain types of information whenever you interact with us.
p71
sg4
S'9648'
p72
sg6
S'First Party Collection/Use'
p73
sg8
S'The site collects your unspecified information for an unspecified purpose. Collection happens when you implicitly provide information in an unspecified way.'
p74
sa(dp75
g2
V whenever you interact with us we obtain certain types of information when your Web browser accesses Amazon.com Click here to see examples of the information we receive. We receive and store We receive and store certain types of information whenever you interact with us.
p76
sg4
S'9649'
p77
sg6
S'First Party Collection/Use'
p78
sg8
S'The site collects your unspecified information for an unspecified purpose. Collection happens when you implicitly provide information on the website.'
p79
sa(dp80
g2
V whenever you interact with us advertisements and other content served by or on behalf of Amazon.com on other Web sites Click here to see examples of the information we receive. We receive and store We receive and store certain types of information whenever you interact with us.
p81
sg4
S'9650'
p82
sg6
S'First Party Collection/Use'
p83
sg8
S'The site collects your unspecified information for an unspecified purpose. Collection happens when you implicitly provide information by other websites.'
p84
sa(dp85
g2
V whenever you interact with us advertisements and other content served by or on behalf of Amazon.com on other Web sites we use "cookies," and we obtain certain types of information when your Web browser accesses Amazon.com We receive and store We receive and store certain types of information whenever you interact with us.
p86
sg4
S'9660'
p87
sg6
S'First Party Collection/Use'
p88
sg8
S'The site collects your cookies or tracking elements for an unspecified purpose. Collection happens when you implicitly provide information by other websites.'
p89
sa(dp90
g2
V For example, like many Web sites, we use "cookies," and we obtain certain types of information when your Web browser accesses Amazon.com or advertisements and other content served by or on behalf of Amazon.com on other Web sites. Click here to see examples of the information we receive. We receive and store certain types of information whenever you interact with us
p91
sg4
S'9686'
p92
sg6
S'First Party Collection/Use'
p93
sg8
S'The site collects an information type outside of our label scheme for an unspecified purpose. Collection happens by some means outside of our label scheme.'
p94
sa(dp95
g2
V whenever you interact with us Click here to see examples of the information we receive. We receive and store We receive and store certain types of information whenever you interact with us.
p96
sg4
S'9687'
p97
sg6
S'First Party Collection/Use'
p98
sg8
S'The site collects your unspecified information for an unspecified purpose. Collection happens when you implicitly provide information in an unspecified way.'
p99
sa(dp100
g2
V When you download or use apps created by Amazon or our subsidiaries, we may receive information about your location and your mobile device, including a unique identifier for your device When you download or use apps created by Amazon or our subsidiaries, we may receive information about your location and your mobile device, including a unique identifier for your device. location When you download or use apps created by Amazon or our subsidiaries, we may receive information about your location and your mobile device, including a unique identifier for your device. We may use this information to provide you with location-based services, such as advertising, search results, and other personalized content. Most mobile devices allow you to turn off location services. Most mobile devices allow you to turn off location services.
p101
sg4
S'9638'
p102
sg6
S'First Party Collection/Use'
p103
sg8
S'The site collects your location information for an additional (non-basic) service or feature. Collection happens when you implicitly provide information in the mobile app. You can configure your privacy with browser settings.'
p104
sa(dp105
g2
V When you download or use apps created by Amazon or our subsidiaries, we may receive information about your location and your mobile device, including a unique identifier for your device When you download or use apps created by Amazon or our subsidiaries, we may receive information about your location and your mobile device, including a unique identifier for your device. your mobile device, including a unique identifier for your device. When you download or use apps created by Amazon or our subsidiaries, we may receive information about your location and your mobile device, including a unique identifier for your device. We may use this information to provide you with location-based services, such as advertising, search results, and other personalized content. Most mobile devices allow you to turn off location services. Most mobile devices allow you to turn off location services.
p106
sg4
S'9639'
p107
sg6
S'First Party Collection/Use'
p108
sg8
S'The site collects your IP address or device IDs for an additional (non-basic) service or feature. Collection happens when you implicitly provide information in the mobile app. You can configure your privacy with browser settings.'
p109
sa(dp110
g2
V When you download or use apps created by Amazon or our subsidiaries Mobile: When you download or use apps created by Amazon or our subsidiaries, we may receive information your location When you download or use apps created by Amazon or our subsidiaries location-based services, a unique identifier for your device Most mobile devices allow you to turn off location services.
p111
sg4
S'9655'
p112
sg6
S'First Party Collection/Use'
p113
sg8
S'The site collects your location information for an additional (non-basic) service or feature. Collection happens when you implicitly provide information in the mobile app, and your data is identifiable. You can configure your privacy with browser settings.'
p114
sa(dp115
g2
V When you download or use apps created by Amazon or our subsidiaries Mobile: When you download or use apps created by Amazon or our subsidiaries, we may receive information your location and your mobile device, including a unique identifier for your device When you download or use apps created by Amazon or our subsidiaries location-based services, a unique identifier for your device Most mobile devices allow you to turn off location services.
p116
sg4
S'9656'
p117
sg6
S'First Party Collection/Use'
p118
sg8
S'The site collects your IP address or device IDs for an additional (non-basic) service or feature. Collection happens when you implicitly provide information in the mobile app, and your data is identifiable. You can configure your privacy with browser settings.'
p119
sa(dp120
g2
V When you download or use apps created by Amazon or our subsidiaries Mobile: When you download or use apps created by Amazon or our subsidiaries, we may receive information your location and your mobile device, including a unique identifier for your device When you download or use apps created by Amazon or our subsidiaries advertising a unique identifier for your device Most mobile devices allow you to turn off location services.
p121
sg4
S'9657'
p122
sg6
S'First Party Collection/Use'
p123
sg8
S'The site collects your IP address or device IDs for advertising. Collection happens when you implicitly provide information in the mobile app, and your data is identifiable. You can configure your privacy with browser settings.'
p124
sa(dp125
g2
V When you download or use apps created by Amazon or our subsidiaries Mobile: When you download or use apps created by Amazon or our subsidiaries, we may receive information your location and your mobile device, including a unique identifier for your device When you download or use apps created by Amazon or our subsidiaries search results a unique identifier for your device Most mobile devices allow you to turn off location services.
p126
sg4
S'9658'
p127
sg6
S'First Party Collection/Use'
p128
sg8
S'The site collects your IP address or device IDs for a basic service or feature. Collection happens when you implicitly provide information in the mobile app, and your data is identifiable. You can configure your privacy with browser settings.'
p129
sa(dp130
g2
V When you download or use apps created by Amazon or our subsidiaries Mobile: When you download or use apps created by Amazon or our subsidiaries, we may receive information your location and your mobile device, including a unique identifier for your device When you download or use apps created by Amazon or our subsidiaries personalized content a unique identifier for your device Most mobile devices allow you to turn off location services.
p131
sg4
S'9659'
p132
sg6
S'First Party Collection/Use'
p133
sg8
S'The site collects your IP address or device IDs for personalization or customization. Collection happens when you implicitly provide information in the mobile app, and your data is identifiable. You can configure your privacy with browser settings.'
p134
sa(dp135
g2
V To help us make e-mails more useful and interesting, we often receive a confirmation when you open e-mail from Amazon.com if your computer supports such capabilities.
p136
sg4
S'9640'
p137
sg6
S'Other'
p138
sg8
S'The text describes a specific data practice that is not covered by our label scheme.'
p139
sa(dp140
g2
V If you do not want to receive e-mail or other mail from us, please adjust your Customer Communication Preferences. If you do not want to receive e-mail or other mail from us, please adjust your Customer Communication Preferences. If you do not want to receive e-mail or other mail from us, please adjust your Customer Communication Preferences.
p141
sg4
S'9641'
p142
sg6
S'User Choice/Control'
p143
sg8
S'You can make a choice about your privacy not described by our label scheme the use of information of a type not covered by our label scheme by an unspecified party for a purpose outside of our label scheme.'
p144
sa(dp145
g2
V We might receive information about you from other sources and add it to our account information. We might receive information about you from other sources and add it to our account information. Click here to see examples of the information we receive. We might receive information about you from other sources and add it to our account information.
p146
sg4
S'9642'
p147
sg6
S'First Party Collection/Use'
p148
sg8
S'The site collects your unspecified information for an unspecified purpose. Collection happens by an unnamed service or third party.'
p149
sa(dp150
g2
V Cookies are unique identifiers that we transfer to your device Cookies are unique identifiers that we transfer to your device to enable our systems to recognize your device
p151
sg4
S'9664'
p152
sg6
S'First Party Collection/Use'
p153
sg8
S'The site collects your unspecified information for a purpose outside of our label scheme. Collection happens in an unspecified way.'
p154
sa(dp155
g2
V Cookies are unique identifiers that we transfer to your device Cookies are unique identifiers that we transfer to your device 1-Click purchasing
p156
sg4
S'9665'
p157
sg6
S'First Party Collection/Use'
p158
sg8
S'The site collects your unspecified information for an additional (non-basic) service or feature. Collection happens in an unspecified way.'
p159
sa(dp160
g2
V Cookies are unique identifiers that we transfer to your device Cookies are unique identifiers that we transfer to your device Recommended for You
p161
sg4
S'9667'
p162
sg6
S'First Party Collection/Use'
p163
sg8
S'The site collects your unspecified information for personalization or customization. Collection happens in an unspecified way.'
p164
sa(dp165
g2
V Cookies are unique identifiers that we transfer to your device Cookies are unique identifiers that we transfer to your device personalized advertisements on other Web sites
p166
sg4
S'9668'
p167
sg6
S'First Party Collection/Use'
p168
sg8
S'The site collects your unspecified information for advertising. Collection happens in an unspecified way.'
p169
sa(dp170
g2
V prevent your browser from accepting new cookies, how to have the browser notify you when you receive a new cookie, or how to disable cookies altogether. Additionally, you can disable or delete similar data used by browser add-ons, such as Flash cookies, by changing the add-on's settings or visiting the Web site of its manufacturer. prevent your browser from accepting new cookies, how to have the browser notify you when you receive a new cookie, or how to disable cookies altogether. Additionally, you can disable or delete similar data used by browser add-ons, such as Flash cookies, by changing the add-on's settings or visiting the Web site of its manufacturer. cookies allow you to take advantage of some of Amazon.com's essential features, prevent your browser from accepting new cookies, how to have the browser notify you when you receive a new cookie, or how to disable cookies altogether. Additionally, you can disable or delete similar data used by browser add-ons, such as Flash cookies, by changing the add-on's settings or visiting the Web site of its manufacturer.
p171
sg4
S'9669'
p172
sg6
S'User Choice/Control'
p173
sg8
S'You can use privacy configuration settings (in your browser or on your device) to control the use of cookies and tracking elements by the site, which collects it for a basic service or feature.'
p174
sa(dp175
g2
V with subsidiaries Amazon.com customer information We share customer information important part of our business with subsidiaries Amazon.com, Inc. controls
p176
sg4
S'9679'
p177
sg6
S'Third Party Sharing/Collection'
p178
sg8
S'Another part of the company or institution does receive unspecified information about you for an unspecified purpose.'
p179
sa(dp180
g2
V with subsidiaries Amazon.com customer information We share customer information important part of our business with subsidiaries Amazon.com, Inc. controls
p181
sg4
S'9680'
p182
sg6
S'Third Party Sharing/Collection'
p183
sg8
S'Another part of the company or institution does receive unspecified information about you for an unspecified purpose.'
p184
sa(dp185
g2
V we share customer information related to those transactions with that third party we share related to those transactions You can tell when a third party is involved in your transactions we share
p186
sg4
S'9685'
p187
sg6
S'Third Party Sharing/Collection'
p188
sg8
S'Another part of the company or institution does receive unspecified information about you for an unspecified purpose.'
p189
sa(dp190
g2
V other companies and individuals to perform functions on our behalf personal information They have access to personal information needed to perform their functions, needed to perform their functions personal information access to
p191
sg4
S'9688'
p192
sg6
S'Third Party Sharing/Collection'
p193
sg8
S'An unnamed third party does receive your unspecified personal information for a basic service or feature.'
p194
sa(dp195
g2
V other businesses name and address we do not offers give that business your name and address
p196
sg4
S'9689'
p197
sg6
S'Third Party Sharing/Collection'
p198
sg8
S'An unnamed third party does not receive your contact information for an unspecified purpose.'
p199
sa(dp200
g2
V adjust your Customer Communication Preferences we send offers to selected groups of Amazon.com customers on behalf of other businesses receive such offers receive such offers
p201
sg4
S'9690'
p202
sg6
S'User Choice/Control'
p203
sg8
S'You can use privacy configuration settings (in the website or app) to control the use of information of a type not covered by our label scheme by the site, which uses it for advertising.'
p204
sa(dp205
g2
V other businesses name and address we do not Promotional Offers give that business your name and address
p206
sg4
S'9691'
p207
sg6
S'Third Party Sharing/Collection'
p208
sg8
S'An unnamed third party does not receive your contact information for targeted advertising.'
p209
sa(dp210
g2
V substantially all of its assets are acquired
p211
sg4
S'9693'
p212
sg6
S'Policy Change'
p213
sg8
S'When a change is made to the privacy policy as a result of a merger or acquisition, users are notified in an unspecified manner. Users must agree before their data is treated according to the new privacy policy.'
p214
sa(dp215
g2
V includes exchanging information with other companies and organizations account and other personal information We release we believe release is appropriate to comply with the law; enforce or apply our Conditions of Use and other agreements; or protect the rights, property exchanging information
p216
sg4
S'9694'
p217
sg6
S'Third Party Sharing/Collection'
p218
sg8
S'An unnamed third party does receive your unspecified personal information for legal requirements.'
p219
sa(dp220
g2
V includes exchanging information with other companies and organizations account and other personal information We release safety of Amazon.com, our users, or others exchanging information
p221
sg4
S'9695'
p222
sg6
S'Third Party Sharing/Collection'
p223
sg8
S'An unnamed third party does receive your unspecified personal information for service operations or security.'
p224
sa(dp225
g2
V you will have an opportunity to choose not to share the information. information about you might go to third parties information about you
p226
sg4
S'9696'
p227
sg6
S'User Choice/Control'
p228
sg8
S'You can make no specified choices about the use of unspecified information by a third party, which collects or receives it for an unspecified purpose.'
p229
sa(dp230
g2
V Secure Sockets Layer (SSL) software
p231
sg4
S'9697'
p232
sg6
S'Data Security'
p233
sg8
S'Data transfer between user and website/app is encrypted, e.g., SSL, TLS, HTTPS.'
p234
sa(dp235
g2
V We reveal only the last four digits of your credit card numbers when confirming an order.
p236
sg4
S'9699'
p237
sg6
S'Data Security'
p238
sg8
S'A specific security measure not covered above.'
p239
sa(dp240
g2
S''
p241
sg4
S'9700'
p242
sg6
S'Third Party Sharing/Collection'
p243
sg8
S'An unspecified third party does do something unspecified with unspecified information about you for an unspecified purpose.'
p244
sa(dp245
g2
V updating that information your account
p246
sg4
S'9701'
p247
sg6
S'User Access, Edit and Deletion'
p248
sg8
S'Users with accounts can edit their information, within the scope of unspecified user information.'
p249
sa(dp250
g2
V updating that information and your interactions
p251
sg4
S'9702'
p252
sg6
S'User Access, Edit and Deletion'
p253
sg8
S'A user can edit their information, within the scope of unspecified user information.'
p254
sa(dp255
g2
V viewing your account
p256
sg4
S'9703'
p257
sg6
S'User Access, Edit and Deletion'
p258
sg8
S'Users with accounts can view their information, within the scope of unspecified user information.'
p259
sa(dp260
g2
V viewing and your interactions
p261
sg4
S'9704'
p262
sg6
S'User Access, Edit and Deletion'
p263
sg8
S'A user can view their information, within the scope of unspecified user information.'
p264
sa(dp265
g2
V updating that information and your interactions
p266
sg4
S'9705'
p267
sg6
S'User Access, Edit and Deletion'
p268
sg8
S'A user can edit their information, within the scope of unspecified user information.'
p269
sa(dp270
g2
V viewing your account
p271
sg4
S'9706'
p272
sg6
S'User Access, Edit and Deletion'
p273
sg8
S'Users with accounts can view their information, within the scope of unspecified user information.'
p274
sa(dp275
g2
V viewing and your interactions
p276
sg4
S'9707'
p277
sg6
S'User Access, Edit and Deletion'
p278
sg8
S'A user can view their information, within the scope of unspecified user information.'
p279
sa(dp280
g2
V you can always choose not to provide information provide information make a purchase or to take advantage of such Amazon.com features as Your Profile, Wish Lists , Customer Reviews, and information
p281
sg4
S'9708'
p282
sg6
S'User Choice/Control'
p283
sg8
S'You can make no specified choices about the use of unspecified information by the site, which collects it for a basic service or feature.'
p284
sa(dp285
g2
V you can always choose not to provide information provide information Amazon Prime. information
p286
sg4
S'9709'
p287
sg6
S'User Choice/Control'
p288
sg8
S'You can make no specified choices about the use of unspecified information by the site, which collects it for an additional (non-basic) service or feature.'
p289
sa(dp290
g2
V add or update certain information
p291
sg4
S'9710'
p292
sg6
S'User Access, Edit and Deletion'
p293
sg8
S'A user can edit their information, within the scope of unspecified user information.'
p294
sa(dp295
g2
V we usually keep a copy of the prior version for our records.
p296
sg4
S'9711'
p297
sg6
S'Data Retention'
p298
sg8
S"A user's unspecified information is retained for an unspecified duration to fulfill an unspecified purpose."
p299
sa(dp300
g2
V adjust your Customer Communication Preferences e-mail or other mail from us
p301
sg4
S'9712'
p302
sg6
S'User Choice/Control'
p303
sg8
S'You can use privacy configuration settings (in the website or app) to control the use of unspecified information by an unspecified party for a purpose outside of our label scheme.'
p304
sa(dp305
g2
V adjust your Advertising Preferences . we gather to allow third parties to personalize advertisements we display to you personal information
p306
sg4
S'9713'
p307
sg6
S'User Choice/Control'
p308
sg8
S'You can use privacy configuration settings (in the website or app) to control the use of generic personal information by the site, which collects it for advertising.'
p309
sa(dp310
g2
V adjust your Advertising Preferences . us to use to allow third parties to personalize advertisements we display to you personal information
p311
sg4
S'9714'
p312
sg6
S'User Choice/Control'
p313
sg8
S'You can use privacy configuration settings (in the website or app) to control the use of generic personal information by the site, which uses it for advertising.'
p314
sa(dp315
g2
V The Help feature on most browsers prevent your browser from accepting new cookies, how to have the browser notify you when you receive a new cookie, or how to disable cookies altogether. allow you to take advantage of some of Amazon.com's essential features, cookies
p316
sg4
S'9719'
p317
sg6
S'User Choice/Control'
p318
sg8
S'You can use privacy configuration settings (in your browser or on your device) to control the use of cookies and tracking elements by the site, which collects it for a basic service or feature.'
p319
sa(dp320
g2
V you can disable or delete similar data used by browser add-ons, such as Flash cookies, by changing the add-on's settings or visiting the Web site of its manufacturer. prevent your browser from accepting new cookies, how to have the browser notify you when you receive a new cookie, or how to disable cookies altogether. allow you to take advantage of some of Amazon.com's essential features, cookies
p321
sg4
S'9720'
p322
sg6
S'User Choice/Control'
p323
sg8
S'You can make a choice about your privacy not described by our label scheme the use of cookies and tracking elements by the site, which collects it for a basic service or feature.'
p324
sa(dp325
g2
V Amazon.com does not sell products for purchase by children. We sell children's products for purchase by adults. If you are under 18, you may use Amazon.com only with the involvement of a parent or guardian.
p326
sg4
S'9721'
p327
sg6
S'Other'
p328
sg8
S'The text describes a specific data practice that is not covered by our label scheme.'
p329
sa(dp330
g2
V Safe Harbor program
p331
sg4
S'9722'
p332
sg6
S'Data Security'
p333
sg8
S'The company/organization has a privacy or security program/organization in place addressing, for example, how to protect data against unauthorized access or privacy training for employees.'
p334
sa(dp335
g2
V If you have questions about our participation in the Safe Harbor program or have a complaint, please send an e-mail to safeharbor@amazon.com.
p336
sg4
S'9723'
p337
sg6
S'Other'
p338
sg8
S'The text describes a specific data practice that is not covered by our label scheme.'
p339
sa(dp340
g2
V Under the Safe Harbor program, any unresolved privacy complaints can be referred to an independent dispute resolution mechanism. We use the BBB EU Safe Harbor Program, which is operated by the Council of Better Business Bureaus.
p341
sg4
S'9724'
p342
sg6
S'Other'
p343
sg8
S'The text describes a specific data practice that is not covered by our label scheme.'
p344
sa(dp345
g2
V Privacy Notice consent of affected customers. Web site
p346
sg4
S'9725'
p347
sg6
S'Policy Change'
p348
sg8
S'When a change is made to the privacy policy that significantly affects data practices, users are notified when visiting the website. Users must agree before their data is treated according to the new privacy policy.'
p349
sa(dp350
g2
V Privacy Notice consent of affected customers. may e-mail periodic reminders
p351
sg4
S'9726'
p352
sg6
S'Policy Change'
p353
sg8
S'When a change is made to the privacy policy that significantly affects data practices, users are notified in a manner outside of our label scheme. Users must agree before their data is treated according to the new privacy policy.'
p354
sa(dp355
g2
V Related Practices and Information Conditions of Use Discussion Boards Community Rules Help department Most Recent Purchases Your Profile and Community Guidelines
p356
sg4
S'9728'
p357
sg6
S'Other'
p358
sg8
S'The text does not fit into our label scheme.'
p359
sa(dp360
g2
V You provide most such information when you search, buy, post, participate in a contest or questionnaire, or communicate with customer service. such information as You provide most such information when you search, buy, post, participate in a contest or questionnaire, or communicate with customer service. search for a product;
p361
sg4
S'9729'
p362
sg6
S'First Party Collection/Use'
p363
sg8
S'The site collects an information type outside of our label scheme for a basic service or feature. Collection happens by some means outside of our label scheme.'
p364
sa(dp365
g2
V You provide most such information when you search, buy, post, participate in a contest or questionnaire, or communicate with customer service. name, address, and phone numbers You provide most such information when you search, buy, post, participate in a contest or questionnaire, or communicate with customer service. search for a product;
p366
sg4
S'9730'
p367
sg6
S'First Party Collection/Use'
p368
sg8
S'The site collects your contact information for a basic service or feature. Collection happens by some means outside of our label scheme.'
p369
sa(dp370
g2
V You provide most such information when you search, buy, post, participate in a contest or questionnaire, or communicate with customer service. credit card information You provide most such information when you search, buy, post, participate in a contest or questionnaire, or communicate with customer service. search for a product;
p371
sg4
S'9731'
p372
sg6
S'First Party Collection/Use'
p373
sg8
S'The site collects your financial information for a basic service or feature. Collection happens by some means outside of our label scheme.'
p374
sa(dp375
g2
V You provide most such information when you search, buy, post, participate in a contest or questionnaire, or communicate with customer service. Social Security and driver's license numbers. You provide most such information when you search, buy, post, participate in a contest or questionnaire, or communicate with customer service. search for a product;
p376
sg4
S'9732'
p377
sg6
S'First Party Collection/Use'
p378
sg8
S'The site collects something that uniquely identifies you for a basic service or feature. Collection happens by some means outside of our label scheme.'
p379
sa(dp380
g2
V from our Web site Internet protocol (IP) address we collect for fraud prevention sometimes aggregate
p381
sg4
S'9735'
p382
sg6
S'First Party Collection/Use'
p383
sg8
S"The site collects your IP address or device IDs for service operations or security. Collection happens on the website, and your data's identifiability is not covered by our label scheme."
p384
sa(dp385
g2
V from our Web site Internet protocol (IP) address we collect other purposes sometimes aggregate
p386
sg4
S'9736'
p387
sg6
S'First Party Collection/Use'
p388
sg8
S"The site collects your IP address or device IDs for a purpose outside of our label scheme. Collection happens on the website, and your data's identifiability is not covered by our label scheme."
p389
sa(dp390
g2
V from our Web site cookies we collect other purposes sometimes aggregate
p391
sg4
S'9737'
p392
sg6
S'First Party Collection/Use'
p393
sg8
S"The site collects your cookies or tracking elements for a purpose outside of our label scheme. Collection happens on the website, and your data's identifiability is not covered by our label scheme."
p394
sa(dp395
g2
V from our Web site e-mail address; password; we collect other purposes sometimes aggregate
p396
sg4
S'9738'
p397
sg6
S'First Party Collection/Use'
p398
sg8
S"The site collects your contact information for a purpose outside of our label scheme. Collection happens on the website, and your data's identifiability is not covered by our label scheme."
p399
sa(dp400
g2
V from our Web site computer and connection information such as browser type, version, and time zone setting, we collect other purposes sometimes aggregate
p401
sg4
S'9739'
p402
sg6
S'First Party Collection/Use'
p403
sg8
S"The site collects your computer information for a purpose outside of our label scheme. Collection happens on the website, and your data's identifiability is not covered by our label scheme."
p404
sa(dp405
g2
V from our Web site purchase history, we collect other purposes sometimes aggregate
p406
sg4
S'9740'
p407
sg6
S'First Party Collection/Use'
p408
sg8
S"The site collects an information type outside of our label scheme for a purpose outside of our label scheme. Collection happens on the website, and your data's identifiability is not covered by our label scheme."
p409
sa(dp410
g2
V Most mobile devices provide users with the ability to disable location services location services click here location
p411
sg4
S'9741'
p412
sg6
S'User Choice/Control'
p413
sg8
S'You can use privacy configuration settings (in your browser or on your device) to control the use of location information by the site, which collects it for an unspecified purpose.'
p414
sa(dp415
g2
V carriers or other third parties, delivery we receive to correct our records we receive
p416
sg4
S'9742'
p417
sg6
S'Third Party Sharing/Collection'
p418
sg8
S'An unnamed third party does receive information about you not covered by our label scheme for a purpose outside of our label scheme.'
p419
sa(dp420
g2
V carriers or other third parties, address information we receive to correct our records we receive
p421
sg4
S'9743'
p422
sg6
S'Third Party Sharing/Collection'
p423
sg8
S'An unnamed third party does receive your contact information for a purpose outside of our label scheme.'
p424
sa(dp425
g2
V carriers or other third parties, address information we receive deliver your next purchase or communication more easily we receive
p426
sg4
S'9744'
p427
sg6
S'Third Party Sharing/Collection'
p428
sg8
S'An unnamed third party does receive your contact information for service operations or security.'
p429
sa(dp430
g2
V carriers or other third parties, account information we receive deliver your next purchase or communication more easily we receive
p431
sg4
S'9745'
p432
sg6
S'Third Party Sharing/Collection'
p433
sg8
S'An unnamed third party does receive information about you not covered by our label scheme for service operations or security.'
p434
sa(dp435
g2
V carriers or other third parties, page-view information we receive deliver your next purchase or communication more easily we receive
p436
sg4
S'9746'
p437
sg6
S'Third Party Sharing/Collection'
p438
sg8
S'An unnamed third party does receive your activities on the website or app for service operations or security.'
p439
sa(dp440
g2
V carriers or other third parties, credit history information we receive deliver your next purchase or communication more easily we receive
p441
sg4
S'9747'
p442
sg6
S'Third Party Sharing/Collection'
p443
sg8
S'An unnamed third party does receive your financial information for service operations or security.'
p444
sa(dp445
g2
V Examples of businesses with which we offer joint or co-branded products and other offerings include Starbucks, OfficeMax, Verizon Wireless, Sprint, T-Mobile, AT&T, J&R Electronics, Eddie Bauer and Northern Tool + Equipment.
p446
sg4
S'9748'
p447
sg6
S'Other'
p448
sg8
S'The text does not fit into our label scheme.'
p449
sa(dp450
g2
V access easily recent orders
p451
sg4
S'9749'
p452
sg6
S'User Access, Edit and Deletion'
p453
sg8
S'A user can access, edit, or delete personal information in a manner not covered by our label scheme, within the scope of transactional data (e.g., online activity, purchases).'
p454
sa(dp455
g2
V access easily personally identifiable information (including name, e-mail, password, communications and personalized advertising preferences, address book, and 1-Click settings); payment settings (including credit card information and promotional certificate and gift card balances); e-mail notification settings (including Product Availability Alerts, Delivers, and newsletters); Recommendations (including Recommended for You and Improve Your Recommendations); shopping lists and gift registries (including Wish Lists and Baby and Wedding Registries); Seller accounts; and Your Profile (including your product Reviews, Recommendations, Listmania lists, Reminders, personal profile, and Wish List).
p456
sg4
S'9752'
p457
sg6
S'User Access, Edit and Deletion'
p458
sg8
S'A user can access, edit, or delete personal information in a manner not covered by our label scheme, within the scope of information explicitly provided by the user.'
p459
sa(dp460
g2
V access easily Recommendations (including Recommended for You and Improve Your Recommendations);
p461
sg4
S'9753'
p462
sg6
S'User Access, Edit and Deletion'
p463
sg8
S'A user can access, edit, or delete personal information in a manner not covered by our label scheme, within the scope of user information outside of our label scheme.'
p464
sa(dp465
g2
V Amazon.com Privacy Notice
p466
sg4
S'8956'
p467
sg6
S'Other'
p468
sg8
S'The text introduces the policy, a section, or a group of practices, but it does not mention a specific practice.'
p469
sa(dp470
g2
V To see what has changed, click here. click here. Last updated
p471
sg4
S'8957'
p472
sg6
S'Policy Change'
p473
sg8
S"When a change of an unspecified nature is made to the privacy policy, the policy date is updated or information about the change is posted as part of the policy. Users' choices regarding policy changes are not mentioned or are unclear."
p474
sa(dp475
g2
V To see what has changed, click here. click here. Last updated
p476
sg4
S'8993'
p477
sg6
S'Policy Change'
p478
sg8
S"When a change of an unspecified nature is made to the privacy policy, the policy date is updated or information about the change is posted as part of the policy. Users' choices regarding policy changes are not mentioned or are unclear."
p479
sa(dp480
g2
V he practices described information about you we will do so describes
p481
sg4
S'8958'
p482
sg6
S'First Party Collection/Use'
p483
sg8
S'The site collects your unspecified information for an unspecified purpose. Collection happens in an unspecified way.'
p484
sa(dp485
g2
V What Amazon.com Personal Information About Customers Gather you are accepting What Choices Do I Have?
p486
sg4
S'8959'
p487
sg6
S'First Party Collection/Use'
p488
sg8
S'The site collects your generic personal information for an unspecified purpose. Collection happens on the website for a user type outside of our label scheme. You can choose not to use the service or feature.'
p489
sa(dp490
g2
V Does Amazon.com Share the Information It Receives? Information Does Share
p491
sg4
S'8960'
p492
sg6
S'Third Party Sharing/Collection'
p493
sg8
S'An unspecified third party does receive unspecified information about you for an unspecified purpose.'
p494
sa(dp495
g2
V Third-Party Advertisers About Advertisers What
p496
sg4
S'8961'
p497
sg6
S'Third Party Sharing/Collection'
p498
sg8
S'An unnamed third party does do something unspecified with unspecified information about you for targeted advertising.'
p499
sa(dp500
g2
V you are accepting the practices described about you we will do so information
p501
sg4
S'8962'
p502
sg6
S'User Choice/Control'
p503
sg8
S'You can choose not to use a service or feature to avoid the use of unspecified information by an unspecified party for an unspecified purpose.'
p504
sa(dp505
g2
V What Choices Do I Have? Choices What I
p506
sg4
S'8963'
p507
sg6
S'User Choice/Control'
p508
sg8
S'You can make no specified choices about the use of unspecified information by an unspecified party for an unspecified purpose.'
p509
sa(dp510
g2
V Which Information Can I Access? I Which
p511
sg4
S'8964'
p512
sg6
S'User Access, Edit and Deletion'
p513
sg8
S'A user can access, edit, or delete personal information in an unspecified manner, within the scope of unspecified user information.'
p514
sa(dp515
g2
V How Secure Is Information About Me?
p516
sg4
S'8965'
p517
sg6
S'Data Security'
p518
sg8
S'Security measures are not mentioned or unclear.'
p519
sa(dp520
g2
V Use, Notices, and Revisions Conditions Notices
p521
sg4
S'8966'
p522
sg6
S'Policy Change'
p523
sg8
S"When a change of an unspecified nature is made to the privacy policy, users are notified in an unspecified manner. Users' choices regarding policy changes are not mentioned or are unclear."
p524
sa(dp525
g2
V Safe Harbor Program
p526
sg4
S'8967'
p527
sg6
S'International and Specific Audiences'
p528
sg8
S'The policy makes a statement about how data from European users is treated (e.g., Safe Harbor provisions).'
p529
sa(dp530
g2
V This notice describes our privacy policy.
p531
sg4
S'8968'
p532
sg6
S'Other'
p533
sg8
S'The text introduces the policy, a section, or a group of practices, but it does not mention a specific practice.'
p534
sa(dp535
g2
V Examples of Information Collected Information Examples Collected
p536
sg4
S'8969'
p537
sg6
S'Third Party Sharing/Collection'
p538
sg8
S'An unspecified third party does do something unspecified with unspecified information about you for an unspecified purpose.'
p539
sa(dp540
g2
V This notice describes our privacy policy.
p541
sg4
S'8992'
p542
sg6
S'Other'
p543
sg8
S'The text introduces the policy, a section, or a group of practices, but it does not mention a specific practice.'
p544
sa(dp545
g2
V Here are the types of information we gather. Amazon.com Personal Information Gather About Customers personalize
p546
sg4
S'8970'
p547
sg6
S'First Party Collection/Use'
p548
sg8
S'The site collects your generic personal information for personalization or customization. Collection happens on the website for a user type outside of our label scheme.'
p549
sa(dp550
g2
V Here are the types of information we gather. Amazon.com Personal Information Gather About Customers continually improve
p551
sg4
S'8980'
p552
sg6
S'First Party Collection/Use'
p553
sg8
S'The site collects your generic personal information for analytics or research. Collection happens on the website for a user type outside of our label scheme.'
p554
sa(dp555
g2
V Here are the types of information we gather. Amazon.com Personal Information Gather About Customers personalize
p556
sg4
S'8991'
p557
sg6
S'First Party Collection/Use'
p558
sg8
S'The site collects your generic personal information for personalization or customization. Collection happens on the website for a user type outside of our label scheme.'
p559
sa(dp560
g2
V you enter on our Web site Web site any information We receive and store such purposes You can choose not to provide certain information
p561
sg4
S'8972'
p562
sg6
S'First Party Collection/Use'
p563
sg8
S'The site collects your unspecified information for an unspecified purpose. Collection happens when you explicitly provide information on the website. You can choose not to use the service or feature.'
p564
sa(dp565
g2
V give us in any other way Web site any information what we collect responding to your requests you might not be able to take advantage of many of our features
p566
sg4
S'8973'
p567
sg6
S'First Party Collection/Use'
p568
sg8
S'The site collects your unspecified information for a basic service or feature. Collection happens on the website. You can choose not to use the service or feature.'
p569
sa(dp570
g2
V give us in any other way Web site any information what we collect customizing future shopping for you, you might not be able to take advantage of many of our features
p571
sg4
S'8974'
p572
sg6
S'First Party Collection/Use'
p573
sg8
S'The site collects your unspecified information for personalization or customization. Collection happens on the website. You can choose not to use the service or feature.'
p574
sa(dp575
g2
V give us in any other way Web site any information what we collect improving our stores you might not be able to take advantage of many of our features
p576
sg4
S'8975'
p577
sg6
S'First Party Collection/Use'
p578
sg8
S'The site collects your unspecified information for analytics or research. Collection happens on the website. You can choose not to use the service or feature.'
p579
sa(dp580
g2
V You can choose not to provide advantage of many of our features certain information
p581
sg4
S'8976'
p582
sg6
S'User Choice/Control'
p583
sg8
S'You can make a choice about your privacy not described by our label scheme the use of unspecified information by an unspecified party for a basic service or feature.'
p584
sa(dp585
g2
V store for such purposes as any information
p586
sg4
S'8977'
p587
sg6
S'Data Retention'
p588
sg8
S"A user's unspecified information is retained for an unspecified duration to fulfill an unspecified purpose."
p589
sa(dp590
g2
V store responding to your requests any information
p591
sg4
S'8978'
p592
sg6
S'Data Retention'
p593
sg8
S"A user's unspecified information is retained for an unspecified duration to perform a requested service, and then it is deleted.."
p594
sa(dp595
g2
V store improving our stores any information
p596
sg4
S'8979'
p597
sg6
S'Data Retention'
p598
sg8
S"A user's unspecified information is retained for an unspecified duration to perform analytics or research."
p599
sa(dp600
g2
V whenever you interact with us. we use "cookies, cookies We receive use
p601
sg4
S'8981'
p602
sg6
S'First Party Collection/Use'
p603
sg8
S'The site collects your cookies or tracking elements for an unspecified purpose. Collection happens when you implicitly provide information on the website.'
p604
sa(dp605
g2
V whenever you interact with us. Web browser accesses Amazon.com certain types of information We receive use
p606
sg4
S'8982'
p607
sg6
S'First Party Collection/Use'
p608
sg8
S'The site collects your unspecified information for an unspecified purpose. Collection happens when you implicitly provide information on the website.'
p609
sa(dp610
g2
V whenever you interact with us. on other Web sites certain types of information We receive use
p611
sg4
S'8983'
p612
sg6
S'First Party Collection/Use'
p613
sg8
S'The site collects your unspecified information for an unspecified purpose. Collection happens when you implicitly provide information by other websites.'
p614
sa(dp615
g2
V and store whenever certain types of information
p616
sg4
S'8984'
p617
sg6
S'Data Retention'
p618
sg8
S"A user's unspecified information is retained for an unspecified duration to fulfill an unspecified purpose."
p619
sa(dp620
g2
V and store whenever we use "cookies,"
p621
sg4
S'8985'
p622
sg6
S'Data Retention'
p623
sg8
S"A user's cookies and tracking elements is retained for an unspecified duration to fulfill an unspecified purpose."
p624
sa(dp625
g2
V whenever you interact with us. we use "cookies, cookies We receive use
p626
sg4
S'8990'
p627
sg6
S'First Party Collection/Use'
p628
sg8
S'The site collects your cookies or tracking elements for an unspecified purpose. Collection happens when you implicitly provide information on the website.'
p629
sa(dp630
g2
V we may receive information download or use apps created by Amazon your location receive information such as Most mobile devices allow you o turn of
p631
sg4
S'8986'
p632
sg6
S'First Party Collection/Use'
p633
sg8
S'The site collects your location information for an unspecified purpose. Collection happens in the mobile app. You can configure your privacy with browser settings.'
p634
sa(dp635
g2
V we may receive information download or use apps created by Amazon your location receive information provide you with location-based services Most mobile devices allow you o turn of
p636
sg4
S'8987'
p637
sg6
S'First Party Collection/Use'
p638
sg8
S'The site collects your location information for an additional (non-basic) service or feature. Collection happens in the mobile app. You can configure your privacy with browser settings.'
p639
sa(dp640
g2
V we may receive information download or use apps created by Amazon your location receive information advertising Most mobile devices allow you o turn of
p641
sg4
S'8988'
p642
sg6
S'First Party Collection/Use'
p643
sg8
S'The site collects your location information for advertising. Collection happens in the mobile app. You can configure your privacy with browser settings.'
p644
sa(dp645
g2
V we may receive information download or use apps created by Amazon your location receive information personalized content Most mobile devices allow you o turn of
p646
sg4
S'8989'
p647
sg6
S'First Party Collection/Use'
p648
sg8
S'The site collects your location information for personalization or customization. Collection happens in the mobile app. You can configure your privacy with browser settings.'
p649
sa(dp650
g2
V or our subsidiaries location provide you with location-based services we may receive information
p651
sg4
S'8994'
p652
sg6
S'Third Party Sharing/Collection'
p653
sg8
S'Another part of the company or institution does receive your location information for an additional (non-basic) service or feature.'
p654
sa(dp655
g2
V we may receive information download or use apps created by Amazon our mobile device receive information personalized content Most mobile devices allow you o turn of
p656
sg4
S'8995'
p657
sg6
S'First Party Collection/Use'
p658
sg8
S'The site collects your IP address or device IDs for personalization or customization. Collection happens in the mobile app. You can configure your privacy with browser settings.'
p659
sa(dp660
g2
V or our subsidiaries your mobile devic advertising we may receive information
p661
sg4
S'8996'
p662
sg6
S'Third Party Sharing/Collection'
p663
sg8
S'Another part of the company or institution does receive your IP address or device IDs for targeted advertising.'
p664
sa(dp665
g2
V or our subsidiaries including a unique identifier for your device search results, we may receive information
p666
sg4
S'8997'
p667
sg6
S'Third Party Sharing/Collection'
p668
sg8
S'Another part of the company or institution does receive your IP address or device IDs for an additional (non-basic) service or feature.'
p669
sa(dp670
g2
V or our subsidiaries including a unique identifier for your device personalized content Most mobile devices allow you to turn off location services. we may receive information
p671
sg4
S'8998'
p672
sg6
S'Third Party Sharing/Collection'
p673
sg8
S'Another part of the company or institution does receive your IP address or device IDs for personalization or customization. You can configure your privacy with browser settings.'
p674
sa(dp675
g2
V Most mobile devices allow you to turn off location services. location services. this information this information to provide you with location-based services turn off location services
p676
sg4
S'8999'
p677
sg6
S'User Choice/Control'
p678
sg8
S'You can use privacy configuration settings (in your browser or on your device) to control the use of location information by an unspecified party for an additional (non-basic) service or feature.'
p679
sa(dp680
g2
V Most mobile devices allow you to turn off location services. location services. this information advertising turn off location services
p681
sg4
S'9000'
p682
sg6
S'User Choice/Control'
p683
sg8
S'You can use privacy configuration settings (in your browser or on your device) to control the use of location information by an unspecified party for advertising.'
p684
sa(dp685
g2
V Most mobile devices allow you to turn off location services. location services. this information search results turn off location services
p686
sg4
S'9001'
p687
sg6
S'User Choice/Control'
p688
sg8
S'You can use privacy configuration settings (in your browser or on your device) to control the use of location information by an unspecified party for an additional (non-basic) service or feature.'
p689
sa(dp690
g2
V Most mobile devices allow you to turn off location services. location services. this information personalized content turn off location services
p691
sg4
S'9002'
p692
sg6
S'User Choice/Control'
p693
sg8
S'You can use privacy configuration settings (in your browser or on your device) to control the use of location information by an unspecified party for personalization or customization.'
p694
sa(dp695
g2
V often receive a confirmation when you open e-mail from Amazon.com receive a confirmation when you open e-mail help us If you do not want to receive e-mail or other mail from us
p696
sg4
S'9003'
p697
sg6
S'First Party Collection/Use'
p698
sg8
S'The site collects your website activities for analytics or research. Collection happens when you implicitly provide information by an unnamed service or third party. You can choose not to use the service or feature.'
p699
sa(dp700
g2
V often receive a confirmation when you open e-mail from Amazon.com receive a confirmation when you open e-mail make e-mails more useful and interesting If you do not want to receive e-mail or other mail from us
p701
sg4
S'9004'
p702
sg6
S'First Party Collection/Use'
p703
sg8
S'The site collects your website activities for an additional (non-basic) service or feature. Collection happens when you implicitly provide information by an unnamed service or third party. You can choose not to use the service or feature.'
p704
sa(dp705
g2
V often receive a confirmation when you open e-mail from Amazon.com compare our customer list to lists received from other companies when you open e-mail customer list in an effort to avoid sending unnecessary messages to our customers If you do not want to receive e-mail or other mail from us
p706
sg4
S'9005'
p707
sg6
S'First Party Collection/Use'
p708
sg8
S'The site collects your website activities for an additional (non-basic) service or feature. Collection happens when you implicitly provide information by some means outside of our label scheme for a user type outside of our label scheme. You can choose not to use the service or feature.'
p709
sa(dp710
g2
V If you do not want to receive e-mail or other mail from us from us want to receive want to receive e-mail or other mail
p711
sg4
S'9006'
p712
sg6
S'User Choice/Control'
p713
sg8
S'You can choose not to use a service or feature to avoid the use of information of a type not covered by our label scheme by the site, which uses it for a basic service or feature.'
p714
sa(dp715
g2
V from other sources other sources information We might receive our account informatio
p716
sg4
S'9007'
p717
sg6
S'First Party Collection/Use'
p718
sg8
S'The site collects your unspecified information for analytics or research. Collection happens by an unnamed service or third party.'
p719
sa(dp720
g2
V from other sources information add it to our account information might receive information
p721
sg4
S'9008'
p722
sg6
S'Third Party Sharing/Collection'
p723
sg8
S'An unnamed third party does do something unspecified with unspecified information about you for an unspecified purpose.'
p724
sa(dp725
g2
V enable our systems to recognize Cookies to provide features such as The Help feature on most browsers will tell you how to prevent your browser from accepting new cookies
p726
sg4
S'9009'
p727
sg6
S'First Party Collection/Use'
p728
sg8
S'The site collects your cookies or tracking elements for an unspecified purpose. Collection happens in an unspecified way. You can configure your privacy with browser settings.'
p729
sa(dp730
g2
V enable our systems to recognize Cookies 1-Click purchasing The Help feature on most browsers will tell you how to prevent your browser from accepting new cookies
p731
sg4
S'9010'
p732
sg6
S'First Party Collection/Use'
p733
sg8
S'The site collects your cookies or tracking elements for an additional (non-basic) service or feature. Collection happens in an unspecified way. You can configure your privacy with browser settings.'
p734
sa(dp735
g2
V enable our systems to recognize Cookies Recommended for You The Help feature on most browsers will tell you how to prevent your browser from accepting new cookies
p736
sg4
S'9011'
p737
sg6
S'First Party Collection/Use'
p738
sg8
S'The site collects your cookies or tracking elements for personalization or customization. Collection happens in an unspecified way. You can configure your privacy with browser settings.'
p739
sa(dp740
g2
V enable our systems to recognize Cookies advertisements The Help feature on most browsers will tell you how to prevent your browser from accepting new cookies
p741
sg4
S'9012'
p742
sg6
S'First Party Collection/Use'
p743
sg8
S'The site collects your cookies or tracking elements for advertising. Collection happens in an unspecified way. You can configure your privacy with browser settings.'
p744
sa(dp745
g2
V enable our systems to recognize Cookies storage of items in your Shopping Cart between visits The Help feature on most browsers will tell you how to prevent your browser from accepting new cookies
p746
sg4
S'9013'
p747
sg6
S'First Party Collection/Use'
p748
sg8
S'The site collects your cookies or tracking elements for a basic service or feature. Collection happens in an unspecified way. You can configure your privacy with browser settings.'
p749
sa(dp750
g2
V on other Web sites Cookies personalized advertisements Cookies are unique identifiers that we transfer
p751
sg4
S'9014'
p752
sg6
S'Third Party Sharing/Collection'
p753
sg8
S'An unnamed third party does track on the first party website or app your cookies or tracking elements for targeted advertising.'
p754
sa(dp755
g2
V e.g., Amazon Associates with content served by Amazon.com and Web sites using Checkout by Amazon payment service Cookies personalized advertisements Cookies are unique identifiers that we transfer
p756
sg4
S'9015'
p757
sg6
S'Third Party Sharing/Collection'
p758
sg8
S'Another part of the company or institution does track on the first party website or app your cookies or tracking elements for targeted advertising.'
p759
sa(dp760
g2
V most browsers will tell you how to prevent your browser from accepting new cookies, how to have the browser notify you when you receive a new cookie, or how to disable cookies altogether tell you how browsers cookies
p761
sg4
S'9016'
p762
sg6
S'User Choice/Control'
p763
sg8
S'You can use privacy configuration settings (in your browser or on your device) to control the use of cookies and tracking elements by an unspecified party for an unspecified purpose.'
p764
sa(dp765
g2
V we recommend that you leave them turned on. recommend that you Because cookies allow you to take advantage of some of Amazon.com's essential features cookies
p766
sg4
S'9017'
p767
sg6
S'User Choice/Control'
p768
sg8
S'You can use privacy configuration settings (in your browser or on your device) to control the use of cookies and tracking elements by the site, which uses it for a basic service or feature.'
p769
sa(dp770
g2
V you can disable or delete similar data similar data
p771
sg4
S'9018'
p772
sg6
S'User Access, Edit and Deletion'
p773
sg8
S'A user can access, edit, or delete personal information in a manner not covered by our label scheme, within the scope of unspecified user information.'
p774
sa(dp775
g2
V Does Amazon.com Share the Information It Receives?
p776
sg4
S'9019'
p777
sg6
S'Other'
p778
sg8
S'The text introduces the policy, a section, or a group of practices, but it does not mention a specific practice.'
p779
sa(dp780
g2
V It Receives? Information about our customers business
p781
sg4
S'9020'
p782
sg6
S'First Party Collection/Use'
p783
sg8
S'The site collects your unspecified information for an unspecified purpose. Collection happens in an unspecified way.'
p784
sa(dp785
g2
V only as described below information We share customer information customer share share
p786
sg4
S'9021'
p787
sg6
S'Third Party Sharing/Collection'
p788
sg8
S'An unspecified third party does receive unspecified information about you for an unspecified purpose. This applies to a user type outside of our label scheme.'
p789
sa(dp790
g2
V with subsidiaries Amazon.com, Inc. controls information We share customer information customer share share
p791
sg4
S'9022'
p792
sg6
S'Third Party Sharing/Collection'
p793
sg8
S'Another part of the company or institution does receive unspecified information about you for an unspecified purpose. This applies to a user type outside of our label scheme.'
p794
sa(dp795
g2
V Affiliated Businesses We Do Not Control:
p796
sg4
S'9023'
p797
sg6
S'Other'
p798
sg8
S'The text does not fit into our label scheme.'
p799
sa(dp800
g2
V a third party information customer related to those transactions and we share customer information related to those transactions with that third part
p801
sg4
S'9024'
p802
sg6
S'Third Party Sharing/Collection'
p803
sg8
S'An unnamed third party does receive unspecified information about you for an unspecified purpose. This applies to a user type outside of our label scheme.'
p804
sa(dp805
g2
V a third party information customer related to those transactions involved in your transactions
p806
sg4
S'9025'
p807
sg6
S'Third Party Sharing/Collection'
p808
sg8
S'An unnamed third party does do something outside of our label scheme with unspecified information about you for an unspecified purpose. This applies to a user type outside of our label scheme.'
p809
sa(dp810
g2
V Third-Party Service Providers personal information needed to perform their functions They have access t
p811
sg4
S'9026'
p812
sg6
S'Third Party Sharing/Collection'
p813
sg8
S'An unnamed third party does receive your unspecified personal information for a purpose outside of our label scheme.'
p814
sa(dp815
g2
V Third-Party Service Providers personal information Examples They have access t
p816
sg4
S'9027'
p817
sg6
S'Third Party Sharing/Collection'
p818
sg8
S'An unnamed third party does receive your unspecified personal information for an unspecified purpose.'
p819
sa(dp820
g2
V Third-Party Service Providers personal information fulfilling orders, delivering packages They have access t
p821
sg4
S'9028'
p822
sg6
S'Third Party Sharing/Collection'
p823
sg8
S'An unnamed third party does receive your unspecified personal information for a basic service or feature.'
p824
sa(dp825
g2
V Third-Party Service Providers personal information analyzing data, They have access t
p826
sg4
S'9029'
p827
sg6
S'Third Party Sharing/Collection'
p828
sg8
S'An unnamed third party does receive your unspecified personal information for analytics or research.'
p829
sa(dp830
g2
V Third-Party Service Providers personal information providing marketing assistance They have access t
p831
sg4
S'9030'
p832
sg6
S'Third Party Sharing/Collection'
p833
sg8
S'An unnamed third party does receive your unspecified personal information for marketing purposes.'
p834
sa(dp835
g2
V Third-Party Service Providers personal information providing search results and links (including paid listings and links) They have access t
p836
sg4
S'9031'
p837
sg6
S'Third Party Sharing/Collection'
p838
sg8
S'An unnamed third party does receive your unspecified personal information for an additional (non-basic) service or feature.'
p839
sa(dp840
g2
V Promotional Offers
p841
sg4
S'9032'
p842
sg6
S'Other'
p843
sg8
S'The text does not fit into our label scheme.'
p844
sa(dp845
g2
V other businesses your name and address. we do not give that Sometimes we send offers If you do not want to receive such offers we send offers to selected groups of Amazon.com
p846
sg4
S'9034'
p847
sg6
S'Third Party Sharing/Collection'
p848
sg8
S'An unnamed third party does not do something outside of our label scheme with something that uniquely identifies you for a purpose outside of our label scheme. You can configure your privacy with user settings provided by the site.'
p849
sa(dp850
g2
V Sometimes we send offers your name and address we do not give Amazon.com customers send offers please adjust your Customer Communication Preferences
p851
sg4
S'9035'
p852
sg6
S'First Party Collection/Use'
p853
sg8
S'The site does not collect something that uniquely identifies you for a purpose outside of our label scheme. Collection happens by some means outside of our label scheme for a user type outside of our label scheme. You can configure your privacy with user settings provided by the site.'
p854
sa(dp855
g2
V such transactions, customer information generally customer information generally customer one of the transferred business assets but remains subject to the promises made in any pre-existing Privacy Notice unless, of course, the customer consents otherwise
p856
sg4
S'9036'
p857
sg6
S'First Party Collection/Use'
p858
sg8
S'The site collects your unspecified information for mergers or acquisitions. Collection happens in an unspecified way for a user type outside of our label scheme. You can opt in for data collection.'
p859
sa(dp860
g2
V unless, of course, the customer consents otherwise otherwise transferred business assets customer information
p861
sg4
S'9037'
p862
sg6
S'User Choice/Control'
p863
sg8
S'You can opt in for the use of unspecified information by an unspecified party for mergers or acquisitions.'
p864
sa(dp865
g2
V information customer information customer transferred assets.
p866
sg4
S'9038'
p867
sg6
S'First Party Collection/Use'
p868
sg8
S'The site collects your unspecified information for mergers or acquisitions. Collection happens in an unspecified way for a user type outside of our label scheme.'
p869
sa(dp870
g2
V We release account and other personal information accoun We release e release account and other personal information when we believe release is appropriate to comply with the law
p871
sg4
S'9039'
p872
sg6
S'First Party Collection/Use'
p873
sg8
S'The site collects an information type outside of our label scheme for legal requirements. Collection happens by some means outside of our label scheme.'
p874
sa(dp875
g2
V We release account and other personal information other personal information We release e release account and other personal information when we believe release is appropriate to comply with the law
p876
sg4
S'9040'
p877
sg6
S'First Party Collection/Use'
p878
sg8
S'The site collects your generic personal information for legal requirements. Collection happens by some means outside of our label scheme.'
p879
sa(dp880
g2
V We release account and other personal information other personal information We release enforce or apply our Conditions of Use and other agreements
p881
sg4
S'9041'
p882
sg6
S'First Party Collection/Use'
p883
sg8
S'The site collects your generic personal information for service operations or security. Collection happens by some means outside of our label scheme.'
p884
sa(dp885
g2
V selling, renting, sharing, or otherwise disclosing personally identifiable information from customers for commercial purposes personally identifiable information this does not include from customers for commercial purposes
p886
sg4
S'9042'
p887
sg6
S'First Party Collection/Use'
p888
sg8
S'The site does not collect your generic personal information for a purpose outside of our label scheme. Collection happens by some means outside of our label scheme for a user type outside of our label scheme.'
p889
sa(dp890
g2
V Obviously, however, this does not include selling, renting, sharing, or otherwise disclosing personally identifiable information from customers for commercial purposes in violation of the commitments set forth in this Privacy Notice.
p891
sg4
S'9043'
p892
sg6
S'Other'
p893
sg8
S'The text describes a specific data practice that is not covered by our label scheme.'
p894
sa(dp895
g2
V have an opportunity to choose you will receive notice when information about you might go to third parties might go to third parties, not to share the information
p896
sg4
S'9044'
p897
sg6
S'User Choice/Control'
p898
sg8
S'You can make no specified choices about the use of unspecified information by a third party, which collects or receives it for an unspecified purpose.'
p899
sa(dp900
g2
V go to third parties information might go to and you will have an opportunity to choose not to share the information. you might go
p901
sg4
S'9084'
p902
sg6
S'Third Party Sharing/Collection'
p903
sg8
S'An unnamed third party does do something unspecified with unspecified information about you for an unspecified purpose.'
p904
sa(dp905
g2
V Secure Sockets Layer (SSL) software
p906
sg4
S'9085'
p907
sg6
S'Data Security'
p908
sg8
S'Data transfer between user and website/app is encrypted, e.g., SSL, TLS, HTTPS.'
p909
sa(dp910
g2
V which encrypts information you inp
p911
sg4
S'9087'
p912
sg6
S'Data Security'
p913
sg8
S'The policy makes generic security statements, e.g., "we protect your data" or "we use technology/encryption to protect your data".'
p914
sa(dp915
g2
V We reveal only the last four digits of your credit card numbers when confirming an order.
p916
sg4
S'9088'
p917
sg6
S'Data Security'
p918
sg8
S'A specific security measure not covered above.'
p919
sa(dp920
g2
V It is important for you to protect against unauthorized access to your password and to your computer.
p921
sg4
S'9090'
p922
sg6
S'Data Security'
p923
sg8
S'User authentication, e.g., login to a user account, is encrypted/secured.'
p924
sa(dp925
g2
V Click here for more information on how to sign off.
p926
sg4
S'9092'
p927
sg6
S'Data Security'
p928
sg8
S'User authentication, e.g., login to a user account, is encrypted/secured.'
p929
sa(dp930
g2
V appropriate credit card company entire credit card number during order processing we transmit
p931
sg4
S'9095'
p932
sg6
S'Third Party Sharing/Collection'
p933
sg8
S'A named third party does receive your financial information for a basic service or feature.'
p934
sa(dp935
g2
V Our site includes third-party advertising and links to other Web sites.
p936
sg4
S'9096'
p937
sg6
S'Other'
p938
sg8
S'The text introduces the policy, a section, or a group of practices, but it does not mention a specific practice.'
p939
sa(dp940
g2
V For more information about third-party advertising at Amazon.com, including personalized or interest-based ads, please read our Interest-Based Ads policy.
p941
sg4
S'9099'
p942
sg6
S'Other'
p943
sg8
S'The text introduces the policy, a section, or a group of practices, but it does not mention a specific practice.'
p944
sa(dp945
g2
V access to a broad range of information about your account
p946
sg4
S'9100'
p947
sg6
S'User Access, Edit and Deletion'
p948
sg8
S'A user can access, edit, or delete personal information in an unspecified manner, within the scope of information explicitly provided by the user.'
p949
sa(dp950
g2
V the limited purpose of viewing d your interactions with Amazon.com
p951
sg4
S'9101'
p952
sg6
S'User Access, Edit and Deletion'
p953
sg8
S'A user can view their information, within the scope of user information outside of our label scheme.'
p954
sa(dp955
g2
V in certain cases, updating that information information
p956
sg4
S'9102'
p957
sg6
S'User Access, Edit and Deletion'
p958
sg8
S'A user can edit their information, within the scope of unspecified user information.'
p959
sa(dp960
g2
V he list of which will change as our Web site evolves.
p961
sg4
S'9103'
p962
sg6
S'User Access, Edit and Deletion'
p963
sg8
S'A user can access, edit, or delete personal information in an unspecified manner, within the scope of unspecified user information.'
p964
sa(dp965
g2
V you can always choose not to provide information it might be needed to make a purchase information
p966
sg4
S'9104'
p967
sg6
S'User Choice/Control'
p968
sg8
S'You can choose not to use a service or feature to avoid the use of unspecified information by an unspecified party for a basic service or feature.'
p969
sa(dp970
g2
V you can always choose not to provide information take advantage of such Amazon.com features information
p971
sg4
S'9105'
p972
sg6
S'User Choice/Control'
p973
sg8
S'You can choose not to use a service or feature to avoid the use of unspecified information by an unspecified party for an additional (non-basic) service or feature.'
p974
sa(dp975
g2
V You can add or update certain informatio
p976
sg4
S'9106'
p977
sg6
S'User Access, Edit and Deletion'
p978
sg8
S'A user can edit their information, within the scope of unspecified user information.'
p979
sa(dp980
g2
V we usually keep a copy of the prior version for our records for our records. update information
p981
sg4
S'9107'
p982
sg6
S'Data Retention'
p983
sg8
S"A user's information of a type not covered by our label scheme is retained for an unspecified duration to fulfill an unspecified purpose."
p984
sa(dp985
g2
V please adjust your Customer Communication Preferences o not want to receive from us do not want to receive e-mail or other mail from us
p986
sg4
S'9108'
p987
sg6
S'User Choice/Control'
p988
sg8
S'You can make a choice about your privacy not described by our label scheme the use of information of a type not covered by our label scheme by the site, which uses it for a purpose outside of our label scheme.'
p989
sa(dp990
g2
V uch as this Privacy Notice will still govern your use of Amazon.com is your responsibility to review them for changes.
p991
sg4
S'9109'
p992
sg6
S'Policy Change'
p993
sg8
S'When a change of an unspecified nature is made to the privacy policy, users are notified in an unspecified manner. Users have no options regarding the change.'
p994
sa(dp995
g2
V please adjust your Advertising Preferences . If you do not want us to use personal information that we gather to allow third parties to personalize advertisements personal information
p996
sg4
S'9110'
p997
sg6
S'User Choice/Control'
p998
sg8
S'You can make a choice about your privacy not described by our label scheme the use of generic personal information by the site, which collects it for advertising.'
p999
sa(dp1000
g2
V The Help feature on most browsers will tell you how to prevent your browser from accepting new cookies,
p1001
sg4
S'9111'
p1002
sg6
S'Other'
p1003
sg8
S'The text introduces the policy, a section, or a group of practices, but it does not mention a specific practice.'
p1004
sa(dp1005
g2
V ou can disable or delete similar data used by browser add-ons, such as Flash cookies, by changing the add-on's settings or visiting the Web site of its manufacturer. you can disable or delete similar data cookies allow you to take advantage of some of Amazon.com's essential features, data
p1006
sg4
S'9112'
p1007
sg6
S'User Choice/Control'
p1008
sg8
S'You can use privacy configuration settings (in your browser or on your device) to control the use of cookies and tracking elements by an unspecified party for a basic service or feature.'
p1009
sa(dp1010
g2
V if you block or otherwise reject our cookies, ou will not be able to add items you will not be able to add items to your Shopping Cart, cookies,
p1011
sg4
S'9113'
p1012
sg6
S'User Choice/Control'
p1013
sg8
S'You can use privacy configuration settings (in your browser or on your device) to control the use of cookies and tracking elements by the site, which uses it for a basic service or feature.'
p1014
sa(dp1015
g2
V Amazon.com does not sell products for purchase by children. We sell children's products for purchase by adults. If you are under 18, you may use Amazon.com only with the involvement of a parent or guardian.
p1016
sg4
S'9119'
p1017
sg6
S'International and Specific Audiences'
p1018
sg8
S'The policy makes a statement about how data from children is treated.'
p1019
sa(dp1020
g2
V Amazon.com is a participant in the Safe Harbor program developed by the U.S. Department of Commerce and (1) the European Union and (2) Switzerland, respectively.
p1021
sg4
S'9115'
p1022
sg6
S'International and Specific Audiences'
p1023
sg8
S'The policy makes a statement about how data from European users is treated (e.g., Safe Harbor provisions).'
p1024
sa(dp1025
g2
V n compliance with the US-EU and US-Swiss Safe Harbor Principles
p1026
sg4
S'9117'
p1027
sg6
S'International and Specific Audiences'
p1028
sg8
S'The policy makes a statement about how data from European users is treated (e.g., Safe Harbor provisions).'
p1029
sa(dp1030
g2
V resolve all complaints about privacy ustomer information. we endeavor to resolve all complaints about privacy and the collection or use of customer information. customer resolve all complaints
p1031
sg4
S'9118'
p1032
sg6
S'First Party Collection/Use'
p1033
sg8
S'The site collects your unspecified information for a purpose outside of our label scheme. Collection happens by some means outside of our label scheme for a user type outside of our label scheme.'
p1034
sa(dp1035
g2
V Under the Safe Harbor program,
p1036
sg4
S'9120'
p1037
sg6
S'International and Specific Audiences'
p1038
sg8
S'The policy makes a statement about how data from European users is treated (e.g., Safe Harbor provisions).'
p1039
sa(dp1040
g2
V ny unresolved privacy complaints can be referred to an independent dispute resolution mechanism
p1041
sg4
S'9121'
p1042
sg6
S'Other'
p1043
sg8
S'The text describes a specific data practice that is not covered by our label scheme.'
p1044
sa(dp1045
g2
V If you choose to visit Amazon.com, your visit and any dispute over privacy is subject to this Notice and our Conditions of Use is subject to privacy
p1046
sg4
S'9122'
p1047
sg6
S'User Choice/Control'
p1048
sg8
S'You can make a choice about your privacy not described by our label scheme the use of unspecified information by the site, which uses it for a purpose outside of our label scheme.'
p1049
sa(dp1050
g2
V If you have any concern about privacy at Amazon.com, please contact us with a thorough description, and we will try to resolve it.
p1051
sg4
S'9123'
p1052
sg6
S'Other'
p1053
sg8
S'The text describes how to contact the company with questions, concerns, or complaints about the privacy policy.'
p1054
sa(dp1055
g2
V our Privacy Notice and the Conditions of Use will change also. our current Privacy Notice applies to all information that we have about you and your account. We may e-mail periodic reminders of our notices and conditions,
p1056
sg4
S'9124'
p1057
sg6
S'Policy Change'
p1058
sg8
S"When a change of an unspecified nature is made to the privacy policy, users are personally notified. Users' choices regarding policy changes are not mentioned or are unclear."
p1059
sa(dp1060
g2
V this Notice and our Conditions of Use, ithout the consen without the consent of affected customers.
p1061
sg4
S'9125'
p1062
sg6
S'Policy Change'
p1063
sg8
S'When a change of an unspecified nature is made to the privacy policy, users are notified in an unspecified manner. Users must agree before their data is treated according to the new privacy policy.'
p1064
sa(dp1065
g2
V Related Practices and Information Conditions of Use Discussion Boards Community Rules Help department Most Recent Purchases Your Profile and Community Guidelines
p1066
sg4
S'9126'
p1067
sg6
S'Other'
p1068
sg8
S'The text does not fit into our label scheme.'
p1069
sa(dp1070
g2
V You provide most such information when you search, buy, post, participate in a contest or questionnaire, or communicate with customer service search e most such information
p1071
sg4
S'9127'
p1072
sg6
S'First Party Collection/Use'
p1073
sg8
S'The site collects your website activities for an unspecified purpose. Collection happens on the website.'
p1074
sa(dp1075
g2
V You provide most such information when you search, buy, post, participate in a contest or questionnaire, or communicate with customer service buy e most such information
p1076
sg4
S'9128'
p1077
sg6
S'First Party Collection/Use'
p1078
sg8
S'The site collects your financial information for an unspecified purpose. Collection happens on the website.'
p1079
sa(dp1080
g2
V You provide most such information You provide most such information when you search, buy, post, participate in a contest or questionnaire, or communicate with customer service search e most such information
p1081
sg4
S'9129'
p1082
sg6
S'First Party Collection/Use'
p1083
sg8
S'The site collects your website activities for an unspecified purpose. Collection happens when you explicitly provide information on the website.'
p1084
sa(dp1085
g2
V you provide information when you search for a product; place an order through Amazon.com or one of our third-party sellers; provide information in Your Account (and you might have more than one if you have used more than one e-mail address when shopping with us) or Your Profile ; communicate with us by phone, e-mail, or otherwise; complete a questionnaire or a contest entry form; use our services such as Amazon Instant Video; compile Wish Lists or other gift registries; participate in Discussion Boards or other community features; provide and rate Reviews; and employ Product Availability Alerts, such as Available to Order Notifications you might supply us with such information As a result of those actions,
p1086
sg4
S'9130'
p1087
sg6
S'First Party Collection/Use'
p1088
sg8
S'The site collects your unspecified information for an unspecified purpose. Collection happens when you explicitly provide information on the website.'
p1089
sa(dp1090
g2
V you provide information when you search for a product; place an order through Amazon.com or one of our third-party sellers; provide information in Your Account (and you might have more than one if you have used more than one e-mail address when shopping with us) or Your Profile ; communicate with us by phone, e-mail, or otherwise; complete a questionnaire or a contest entry form; use our services such as Amazon Instant Video; compile Wish Lists or other gift registries; participate in Discussion Boards or other community features; provide and rate Reviews; and employ Product Availability Alerts, such as Available to Order Notifications you might supply us with as your name, address, and phone number As a result of those actions,
p1091
sg4
S'9131'
p1092
sg6
S'First Party Collection/Use'
p1093
sg8
S'The site collects your generic personal information for an unspecified purpose. Collection happens when you explicitly provide information on the website.'
p1094
sa(dp1095
g2
V you provide information when you search for a product; place an order through Amazon.com or one of our third-party sellers; provide information in Your Account (and you might have more than one if you have used more than one e-mail address when shopping with us) or Your Profile ; communicate with us by phone, e-mail, or otherwise; complete a questionnaire or a contest entry form; use our services such as Amazon Instant Video; compile Wish Lists or other gift registries; participate in Discussion Boards or other community features; provide and rate Reviews; and employ Product Availability Alerts, such as Available to Order Notifications you might supply us with credit card information As a result of those actions,
p1096
sg4
S'9132'
p1097
sg6
S'First Party Collection/Use'
p1098
sg8
S'The site collects your financial information for an unspecified purpose. Collection happens when you explicitly provide information on the website.'
p1099
sa(dp1100
g2
V you provide information when you search for a product; place an order through Amazon.com or one of our third-party sellers; provide information in Your Account (and you might have more than one if you have used more than one e-mail address when shopping with us) or Your Profile ; communicate with us by phone, e-mail, or otherwise; complete a questionnaire or a contest entry form; use our services such as Amazon Instant Video; compile Wish Lists or other gift registries; participate in Discussion Boards or other community features; provide and rate Reviews; and employ Product Availability Alerts, such as Available to Order Notifications you might supply us with people to whom purchases have been shipped, including addresses and phone number As a result of those actions,
p1101
sg4
S'9133'
p1102
sg6
S'First Party Collection/Use'
p1103
sg8
S'The site collects your contact information for an unspecified purpose. Collection happens when you explicitly provide information on the website.'
p1104
sa(dp1105
g2
V you provide information when you search for a product; place an order through Amazon.com or one of our third-party sellers; provide information in Your Account (and you might have more than one if you have used more than one e-mail address when shopping with us) or Your Profile ; communicate with us by phone, e-mail, or otherwise; complete a questionnaire or a contest entry form; use our services such as Amazon Instant Video; compile Wish Lists or other gift registries; participate in Discussion Boards or other community features; provide and rate Reviews; and employ Product Availability Alerts, such as Available to Order Notifications you might supply us with personal description and photograph As a result of those actions,
p1106
sg4
S'9134'
p1107
sg6
S'First Party Collection/Use'
p1108
sg8
S'The site collects your demographic information for an unspecified purpose. Collection happens when you explicitly provide information on the website.'
p1109
sa(dp1110
g2
V you provide information when you search for a product; place an order through Amazon.com or one of our third-party sellers; provide information in Your Account (and you might have more than one if you have used more than one e-mail address when shopping with us) or Your Profile ; communicate with us by phone, e-mail, or otherwise; complete a questionnaire or a contest entry form; use our services such as Amazon Instant Video; compile Wish Lists or other gift registries; participate in Discussion Boards or other community features; provide and rate Reviews; and employ Product Availability Alerts, such as Available to Order Notifications you might supply us with n Your Profile As a result of those actions,
p1111
sg4
S'9135'
p1112
sg6
S'First Party Collection/Use'
p1113
sg8
S'The site collects your user profile for an unspecified purpose. Collection happens when you explicitly provide information on the website.'
p1114
sa(dp1115
g2
V you provide information when you search for a product; place an order through Amazon.com or one of our third-party sellers; provide information in Your Account (and you might have more than one if you have used more than one e-mail address when shopping with us) or Your Profile ; communicate with us by phone, e-mail, or otherwise; complete a questionnaire or a contest entry form; use our services such as Amazon Instant Video; compile Wish Lists or other gift registries; participate in Discussion Boards or other community features; provide and rate Reviews; and employ Product Availability Alerts, such as Available to Order Notifications you might supply us with including Social Security and driver's license numbers. As a result of those actions,
p1116
sg4
S'9136'
p1117
sg6
S'First Party Collection/Use'
p1118
sg8
S'The site collects something that uniquely identifies you for an unspecified purpose. Collection happens when you explicitly provide information on the website.'
p1119
sa(dp1120
g2
V Automatic Information Examples of the information we collect and analyze we collect and analyze include the Internet protocol (IP) address used to connect your computer to the Interne to create features which we sometimes aggregate
p1121
sg4
S'9137'
p1122
sg6
S'First Party Collection/Use'
p1123
sg8
S'The site collects your IP address or device IDs for an additional (non-basic) service or feature. Collection happens when you implicitly provide information in an unspecified way, and your data is aggregated or anonymized.'
p1124
sa(dp1125
g2
V Automatic Information Examples of the information we collect and analyze we collect and analyze login to create features which we sometimes aggregate
p1126
sg4
S'9138'
p1127
sg6
S'First Party Collection/Use'
p1128
sg8
S'The site collects your user profile for an additional (non-basic) service or feature. Collection happens when you implicitly provide information in an unspecified way, and your data is aggregated or anonymized.'
p1129
sa(dp1130
g2
V Automatic Information Examples of the information we collect and analyze we collect and analyze computer and connection information such as browser type, version, and time zone setting, browser plug-in types and versions, operating system, and platform; to create features which we sometimes aggregate
p1131
sg4
S'9139'
p1132
sg6
S'First Party Collection/Use'
p1133
sg8
S'The site collects your computer information for an additional (non-basic) service or feature. Collection happens when you implicitly provide information in an unspecified way, and your data is aggregated or anonymized.'
p1134
sa(dp1135
g2
V Automatic Information Examples of the information we collect and analyze we collect and analyze purchase history, to create features which we sometimes aggregate
p1136
sg4
S'9140'
p1137
sg6
S'First Party Collection/Use'
p1138
sg8
S'The site collects your website activities for an additional (non-basic) service or feature. Collection happens when you implicitly provide information in an unspecified way, and your data is aggregated or anonymized.'
p1139
sa(dp1140
g2
V Automatic Information Examples of the information we collect and analyze we collect and analyze the full Uniform Resource Locator (URL) clickstream to, through, and from our Web site, including date and time to create features which we sometimes aggregate
p1141
sg4
S'9141'
p1142
sg6
S'First Party Collection/Use'
p1143
sg8
S'The site collects an information type outside of our label scheme for an additional (non-basic) service or feature. Collection happens when you implicitly provide information in an unspecified way, and your data is aggregated or anonymized.'
p1144
sa(dp1145
g2
V Automatic Information Examples of the information we collect and analyze we collect and analyze cookie number to create features which we sometimes aggregate
p1146
sg4
S'9142'
p1147
sg6
S'First Party Collection/Use'
p1148
sg8
S'The site collects your cookies or tracking elements for an additional (non-basic) service or feature. Collection happens when you implicitly provide information in an unspecified way, and your data is aggregated or anonymized.'
p1149
sa(dp1150
g2
V Automatic Information Examples of the information we collect and analyze we collect and analyze he phone number you used to call our 800 number to create features which we sometimes aggregate
p1151
sg4
S'9143'
p1152
sg6
S'First Party Collection/Use'
p1153
sg8
S'The site collects your contact information for an additional (non-basic) service or feature. Collection happens when you implicitly provide information in an unspecified way, and your data is aggregated or anonymized.'
p1154
sa(dp1155
g2
V We may also use browser data We may also use browser data such as cookies, Flash cookies (also known as Flash Local Shared Objects), or similar data on certain parts of our Web site for fraud prevention and other purposes for fraud prevention
p1156
sg4
S'9144'
p1157
sg6
S'First Party Collection/Use'
p1158
sg8
S'The site collects your cookies or tracking elements for service operations or security. Collection happens when you implicitly provide information in an unspecified way.'
p1159
sa(dp1160
g2
V We may also use browser data We may also use browser data such as cookies, Flash cookies (also known as Flash Local Shared Objects), or similar data on certain parts of our Web site for fraud prevention and other purposes and other purposes
p1161
sg4
S'9145'
p1162
sg6
S'First Party Collection/Use'
p1163
sg8
S'The site collects your cookies or tracking elements for an unspecified purpose. Collection happens when you implicitly provide information in an unspecified way.'
p1164
sa(dp1165
g2
V During some visits we may use e may use software tools such as JavaScript ession information o measure and collect session information
p1166
sg4
S'9147'
p1167
sg6
S'First Party Collection/Use'
p1168
sg8
S'The site collects your unspecified information for service operations or security. Collection happens when you implicitly provide information by some means outside of our label scheme.'
p1169
sa(dp1170
g2
V During some visits we may use e may use software tools such as JavaScript page response times, download errors, o measure and collect session information
p1171
sg4
S'9148'
p1172
sg6
S'First Party Collection/Use'
p1173
sg8
S'The site collects an information type outside of our label scheme for service operations or security. Collection happens when you implicitly provide information by some means outside of our label scheme.'
p1174
sa(dp1175
g2
V During some visits we may use e may use software tools such as JavaScript length of visits to certain pages, page interaction information (such as scrolling, clicks, and mouse-overs), and methods used to browse away from the page o measure and collect session information
p1176
sg4
S'9149'
p1177
sg6
S'First Party Collection/Use'
p1178
sg8
S'The site collects your website activities for service operations or security. Collection happens when you implicitly provide information by some means outside of our label scheme.'
p1179
sa(dp1180
g2
V We may also collect We may also collect technical information to help us identify your device for fraud prevention and diagnostic purposes.
p1181
sg4
S'9150'
p1182
sg6
S'First Party Collection/Use'
p1183
sg8
S'The site collects an information type outside of our label scheme for service operations or security. Collection happens when you implicitly provide information in an unspecified way.'
p1184
sa(dp1185
g2
V provide users with the ability to disable location services. disable location services the ability location services. M
p1186
sg4
S'9151'
p1187
sg6
S'User Choice/Control'
p1188
sg8
S'You can use privacy configuration settings (in your browser or on your device) to control the use of location information by an unspecified party for an unspecified purpose.'
p1189
sa(dp1190
g2
V ost likely, these controls are located in the device's settings menu. For information about specific devices, click here . If you have questions about how to disable your device's location services, we recommend you contact your mobile service carrier or your device manufacturer.
p1191
sg4
S'9152'
p1192
sg6
S'Other'
p1193
sg8
S'The text does not fit into our label scheme.'
p1194
sa(dp1195
g2
V information we receive from other sources updated delivery and address information from our carriers or other third parties which we use to correct our records and deliver your next purchase or communication more easily information we receiv
p1196
sg4
S'9153'
p1197
sg6
S'Third Party Sharing/Collection'
p1198
sg8
S'An unnamed third party does do something unspecified with your contact information for a basic service or feature.'
p1199
sa(dp1200
g2
V information we receive from other sources account information which we use to correct our records and deliver your next purchase or communication more easily information we receiv
p1201
sg4
S'9154'
p1202
sg6
S'Third Party Sharing/Collection'
p1203
sg8
S'An unnamed third party does do something unspecified with your user profile for a basic service or feature.'
p1204
sa(dp1205
g2
V information we receive from other sources purchase or redemption information which we use to correct our records and deliver your next purchase or communication more easily information we receiv
p1206
sg4
S'9155'
p1207
sg6
S'Third Party Sharing/Collection'
p1208
sg8
S'An unnamed third party does do something unspecified with your activities on the website or app for a basic service or feature.'
p1209
sa(dp1210
g2
V some merchants with which we operate co-branded businesses nd page-view information from some merchants which we use to correct our records and deliver your next purchase or communication more easily information we receiv
p1211
sg4
S'9156'
p1212
sg6
S'Third Party Sharing/Collection'
p1213
sg8
S'Another part of the company or institution does do something unspecified with your activities on the website or app for a basic service or feature.'
p1214
sa(dp1215
g2
V offered by our subsidiary, Alexa Internet; search term and search result information from some searches conducted through the Web search features which we use to correct our records and deliver your next purchase or communication more easily information we receiv
p1216
sg4
S'9157'
p1217
sg6
S'Third Party Sharing/Collection'
p1218
sg8
S'A named third party does do something unspecified with your activities on the website or app for a basic service or feature.'
p1219
sa(dp1220
g2
V rom credit bureaus, credit history information which we use to help prevent and detect fraud and to offer certain credit or financial services to some customers information we receiv
p1221
sg4
S'9158'
p1222
sg6
S'Third Party Sharing/Collection'
p1223
sg8
S'A named third party does do something unspecified with your financial information for service operations or security.'
p1224
sa(dp1225
g2
V Examples of businesses with which we offer joint or co-branded products and other offerings include Starbucks, OfficeMax, Verizon Wireless, Sprint, T-Mobile, AT&T, J&R Electronics, Eddie Bauer and Northern Tool + Equipment
p1226
sg4
S'9159'
p1227
sg6
S'Other'
p1228
sg8
S'The text does not fit into our label scheme.'
p1229
sa(dp1230
g2
V Examples of information you can access easily at Amazon.com include up-to-date information regarding recent orders
p1231
sg4
S'9160'
p1232
sg6
S'User Access, Edit and Deletion'
p1233
sg8
S'A user can access, edit, or delete personal information in an unspecified manner, within the scope of transactional data (e.g., online activity, purchases).'
p1234
sa(dp1235
g2
V Examples of information you can access easily at Amazon.com personally identifiable information (including name, e-mail, password, communications and personalized advertising preferences, address book, and 1-Click settings)
p1236
sg4
S'9161'
p1237
sg6
S'User Access, Edit and Deletion'
p1238
sg8
S'A user can access, edit, or delete personal information in an unspecified manner, within the scope of information explicitly provided by the user.'
p1239
sa(dp1240
g2
V Examples of information you can access easily at Amazon.com e-mail notification settings (including Product Availability Alerts, Delivers, and newsletters);
p1241
sg4
S'9162'
p1242
sg6
S'User Access, Edit and Deletion'
p1243
sg8
S'A user can access, edit, or delete personal information in an unspecified manner, within the scope of information the company has learned about the user.'
p1244
sa(dp1245
g2
V Examples of information you can access easily at Amazon.com Recommendations (including Recommended for You and Improve Your Recommendations)
p1246
sg4
S'9163'
p1247
sg6
S'User Access, Edit and Deletion'
p1248
sg8
S'A user can access, edit, or delete personal information in an unspecified manner, within the scope of information the company has learned about the user.'
p1249
sa(dp1250
g2
V Amazon.com Privacy Notice
p1251
sg4
S'9045'
p1252
sg6
S'Other'
p1253
sg8
S'The text introduces the policy, a section, or a group of practices, but it does not mention a specific practice.'
p1254
sa(dp1255
g2
V Last updated: March 3, 2014. To see what has changed, click here.
p1256
sg4
S'9046'
p1257
sg6
S'Other'
p1258
sg8
S'The text introduces the policy, a section, or a group of practices, but it does not mention a specific practice.'
p1259
sa(dp1260
g2
V knows that you care how information about you is used and shared, and we appreciate your trust that we will do so carefully and sensibly. This notice describes our privacy policy. By visiting Amazon.com, you are accepting the practices described in this Privacy Notice.
p1261
sg4
S'9047'
p1262
sg6
S'Other'
p1263
sg8
S'The text introduces the policy, a section, or a group of practices, but it does not mention a specific practice.'
p1264
sa(dp1265
g2
V information we gather. Personal Information personalize and continually improve your Amazon experience.
p1266
sg4
S'9048'
p1267
sg6
S'First Party Collection/Use'
p1268
sg8
S'The site collects your unspecified information for personalization or customization. Collection happens in an unspecified way.'
p1269
sa(dp1270
g2
V you enter on our Web site or give us in any other way on our Web site any information We receive and store customizing future shopping for you You can choose not to provide certain information, but then you might not be able to take advantage of many of our features
p1271
sg4
S'9049'
p1272
sg6
S'First Party Collection/Use'
p1273
sg8
S'The site collects your unspecified information for personalization or customization. Collection happens when you explicitly provide information on the website. You can choose not to use the service or feature.'
p1274
sa(dp1275
g2
V you enter on our Web site or give us in any other way on our Web site any information We receive and store responding to your requests You can choose not to provide certain information, but then you might not be able to take advantage of many of our features
p1276
sg4
S'9050'
p1277
sg6
S'First Party Collection/Use'
p1278
sg8
S'The site collects your unspecified information for a basic service or feature. Collection happens when you explicitly provide information on the website. You can choose not to use the service or feature.'
p1279
sa(dp1280
g2
V We receive and store certain types of information whenever you interact with us certain types of information
p1281
sg4
S'9051'
p1282
sg6
S'First Party Collection/Use'
p1283
sg8
S'The site collects your unspecified information for an unspecified purpose. Collection happens on the website.'
p1284
sa(dp1285
g2
V Automatic Information advertisements and other content served by or on behalf of Amazon.com on other Web sites certain types of information
p1286
sg4
S'9052'
p1287
sg6
S'First Party Collection/Use'
p1288
sg8
S'The site collects your unspecified information for an unspecified purpose. Collection happens when you implicitly provide information on other websites.'
p1289
sa(dp1290
g2
V We receive and store certain types of information whenever you interact with us "cookies,"
p1291
sg4
S'9057'
p1292
sg6
S'First Party Collection/Use'
p1293
sg8
S'The site collects your cookies or tracking elements for an unspecified purpose. Collection happens on the website.'
p1294
sa(dp1295
g2
V Mobile: When you download or use apps information about your location such as advertising turn off location services
p1296
sg4
S'9053'
p1297
sg6
S'First Party Collection/Use'
p1298
sg8
S'The site collects your location information for advertising. Collection happens in the mobile app. You can configure your privacy with browser settings.'
p1299
sa(dp1300
g2
V Mobile: When you download or use apps unique identifier for your device such as advertising turn off location services
p1301
sg4
S'9054'
p1302
sg6
S'First Party Collection/Use'
p1303
sg8
S'The site collects your IP address or device IDs for advertising. Collection happens in the mobile app. You can configure your privacy with browser settings.'
p1304
sa(dp1305
g2
V Mobile: When you download or use apps unique identifier for your device search results turn off location services
p1306
sg4
S'9055'
p1307
sg6
S'First Party Collection/Use'
p1308
sg8
S'The site collects your IP address or device IDs for a basic service or feature. Collection happens in the mobile app. You can configure your privacy with browser settings.'
p1309
sa(dp1310
g2
V Mobile: When you download or use apps unique identifier for your device personalized content turn off location services
p1311
sg4
S'9056'
p1312
sg6
S'First Party Collection/Use'
p1313
sg8
S'The site collects your IP address or device IDs for personalization or customization. Collection happens in the mobile app. You can configure your privacy with browser settings.'
p1314
sa(dp1315
g2
V If you do not want to receive e-mail or other mail from us, please adjust your Customer Communication Preferences To help us make e-mails more useful and interesting compare our customer list to lists received from other companies
p1316
sg4
S'9058'
p1317
sg6
S'User Choice/Control'
p1318
sg8
S'You can opt out (via a link) from the use of contact information by an unspecified party for personalization or customization.'
p1319
sa(dp1320
g2
V We might receive information about you from other sources information about you add it to our account information
p1321
sg4
S'9060'
p1322
sg6
S'First Party Collection/Use'
p1323
sg8
S'The site collects your generic personal information for a basic service or feature. Collection happens by an unnamed service or third party.'
p1324
sa(dp1325
g2
V Cookies are unique identifiers that we transfer to your device to enable our systems to recognize your device Recommended for You , personalized advertisements on other Web sites (e.g., Amazon Associates with content served by Amazon.com and Web sites using Checkout by Amazon payment service The Help feature on most browsers will tell you how to prevent your browser from accepting new cookies, how to have the browser notify you when you receive a new cookie, or how to disable cookies altogether. Additionally, you can disable or delete similar data used by browser add-ons, such as Flash cookies, by changing the add-on's settings or visiting the Web site of its manufacturer.
p1326
sg4
S'9061'
p1327
sg6
S'First Party Collection/Use'
p1328
sg8
S'The site collects your cookies or tracking elements for personalization or customization. Collection happens in an unspecified way. You can configure your privacy with browser settings.'
p1329
sa(dp1330
g2
V Cookies are unique identifiers that we transfer to your device to enable our systems to recognize your device and to provide features such as 1-Click purchasing Because cookies allow you to take advantage of some of Amazon.com's essential features, we recommend that you leave them turned on. For instance, if you block or otherwise reject our cookies, you will not be able to add items to your Shopping Cart, proceed to Checkout, or use any Amazon.com products and services that require you to Sign in
p1331
sg4
S'9062'
p1332
sg6
S'First Party Collection/Use'
p1333
sg8
S'The site collects your cookies or tracking elements for an additional (non-basic) service or feature. Collection happens in an unspecified way. You can choose not to use the service or feature.'
p1334
sa(dp1335
g2
V Cookies are unique identifiers that we transfer to your device to enable our systems to recognize your device and storage of items in your Shopping Cart between visits The Help feature on most browsers will tell you how to prevent your browser from accepting new cookies, how to have the browser notify you when you receive a new cookie, or how to disable cookies altogether. Additionally, you can disable or delete similar data used by browser add-ons, such as Flash cookies, by changing the add-on's settings or visiting the Web site of its manufacturer.
p1336
sg4
S'9063'
p1337
sg6
S'First Party Collection/Use'
p1338
sg8
S'The site collects your cookies or tracking elements for a basic service or feature. Collection happens in an unspecified way. You can configure your privacy with browser settings.'
p1339
sa(dp1340
g2
V with subsidiaries Amazon.com, Inc. We share customer information only as described below
p1341
sg4
S'9064'
p1342
sg6
S'Third Party Sharing/Collection'
p1343
sg8
S'Another part of the company or institution does do something unspecified with unspecified information about you for an unspecified purpose.'
p1344
sa(dp1345
g2
V We work closely with affiliated businesses we share customer information related to those transactions with that third party these businesses operate stores at Amazon.com or sell offerings to you at Amazon.com. In other cases, we operate stores, provide services, or sell product lines jointly with these businesses we share customer information related to those transactions with that third party
p1346
sg4
S'9065'
p1347
sg6
S'Third Party Sharing/Collection'
p1348
sg8
S'An unnamed third party does receive your unspecified personal information for a basic service or feature.'
p1349
sa(dp1350
g2
V other companies and individuals They have access to personal information needed to perform their functions They have access to personal information needed to perform their functions Examples include fulfilling orders, delivering packages, sending postal mail and e-mail, removing repetitive information from customer lists, analyzing data, providing marketing assistance, providing search results and links (including paid listings and links), processing credit card payments, and providing customer service
p1351
sg4
S'9066'
p1352
sg6
S'Third Party Sharing/Collection'
p1353
sg8
S'An unnamed third party does do something outside of our label scheme with your unspecified personal information for a basic service or feature.'
p1354
sa(dp1355
g2
V behalf of other businesses we do not give that business your name and address we do not give that business your name and address. send offers to selected groups of Amazon.com customers If you do not want to receive such offers, please adjust your Customer Communication Preferences business your name and address
p1356
sg4
S'9067'
p1357
sg6
S'Third Party Sharing/Collection'
p1358
sg8
S'An unnamed third party does not receive your contact information for marketing purposes. You can opt out using the provided link.'
p1359
sa(dp1360
g2
V stores, subsidiaries, or business units customer information we might sell or buy stores, subsidiaries, or business units transferred business assets
p1361
sg4
S'9068'
p1362
sg6
S'Third Party Sharing/Collection'
p1363
sg8
S'Another part of the company or institution does receive your unspecified personal information for mergers or acquisitions.'
p1364
sa(dp1365
g2
V other companies and organizations account and other personal information We release when we believe release is appropriate to comply with the law personally identifiable information We release
p1366
sg4
S'9069'
p1367
sg6
S'Third Party Sharing/Collection'
p1368
sg8
S'An unnamed third party does receive your unspecified personal information for legal requirements. The data is personally identifiable.'
p1369
sa(dp1370
g2
V other companies and organizations account and other personal information We release enforce or apply our Conditions of Use and other agreements; or protect the rights, property, or safety of Amazon.com, our users, or others. This includes exchanging information with other companies and organizations for fraud protection and credit risk reduction personally identifiable information We release
p1371
sg4
S'9072'
p1372
sg6
S'Third Party Sharing/Collection'
p1373
sg8
S'An unnamed third party does receive your unspecified personal information for service operations or security. The data is personally identifiable.'
p1374
sa(dp1375
g2
V with other companies and organizations personally identifiable informatio Obviously, however, this does not include from customers for commercial purposes personally identifiable information selling, renting, sharing, or otherwise disclosing
p1376
sg4
S'9073'
p1377
sg6
S'Third Party Sharing/Collection'
p1378
sg8
S'An unnamed third party does not receive your unspecified personal information for a purpose outside of our label scheme. The data is personally identifiable.'
p1379
sa(dp1380
g2
V you will have an opportunity to choose not to share the information you will receive notice when information about you might go to third parties information about you
p1381
sg4
S'9074'
p1382
sg6
S'User Choice/Control'
p1383
sg8
S'You can opt out (by contacting the company) from the use of generic personal information by a third party, which collects or receives it for an unspecified purpose.'
p1384
sa(dp1385
g2
V protect the security of your information during transmission by using Secure Sockets Layer (SSL) software, which encrypts information you input
p1386
sg4
S'9075'
p1387
sg6
S'Data Security'
p1388
sg8
S'Data transfer between user and website/app is encrypted, e.g., SSL, TLS, HTTPS.'
p1389
sa(dp1390
g2
V We reveal only the last four digits of your credit card numbers when confirming an order
p1391
sg4
S'9076'
p1392
sg6
S'Data Security'
p1393
sg8
S'A specific security measure not covered above.'
p1394
sa(dp1395
g2
V Our site includes third-party advertising and links to other Web sites. For more information about third-party advertising at Amazon.com, including personalized or interest-based ads, please read our Interest-Based Ads policy.
p1396
sg4
S'9077'
p1397
sg6
S'Other'
p1398
sg8
S'The text introduces the policy, a section, or a group of practices, but it does not mention a specific practice.'
p1399
sa(dp1400
g2
V limited purpose of viewing and, in certain cases, updating that information access to a broad range of information about your account and your interactions with Amazon.com
p1401
sg4
S'9078'
p1402
sg6
S'User Access, Edit and Deletion'
p1403
sg8
S'A user can edit their information, within the scope of unspecified user information.'
p1404
sa(dp1405
g2
V always choose not to provide information, even though it might be needed make a purchase or to take advantage of such Amazon.com features as Your Profile provide information
p1406
sg4
S'9079'
p1407
sg6
S'User Choice/Control'
p1408
sg8
S'You can choose not to use a service or feature to avoid the use of unspecified information by an unspecified party for a basic service or feature.'
p1409
sa(dp1410
g2
V always choose not to provide information, even though it might be needed Wish Lists , Customer Reviews, and Amazon Prime provide information
p1411
sg4
S'9080'
p1412
sg6
S'User Choice/Control'
p1413
sg8
S'You can choose not to use a service or feature to avoid the use of unspecified information by an unspecified party for an additional (non-basic) service or feature.'
p1414
sa(dp1415
g2
V You can add or update certain information
p1416
sg4
S'9081'
p1417
sg6
S'User Access, Edit and Deletion'
p1418
sg8
S'A user can edit their information, within the scope of unspecified user information.'
p1419
sa(dp1420
g2
V keep a copy of the prior version for our records When you update information
p1421
sg4
S'9082'
p1422
sg6
S'Data Retention'
p1423
sg8
S"A user's unspecified information is retained for an unspecified duration to fulfill an unspecified purpose."
p1424
sa(dp1425
g2
V please adjust your Customer Communication Preferences receive e-mail or other mail from us e-mail or other mail
p1426
sg4
S'9789'
p1427
sg6
S'User Choice/Control'
p1428
sg8
S'You can opt out (via a link) from the use of unspecified information by the site, which uses it for a basic service or feature.'
p1429
sa(dp1430
g2
V please adjust your Advertising Preferences to allow third parties personalize advertisements personal information
p1431
sg4
S'9083'
p1432
sg6
S'User Choice/Control'
p1433
sg8
S'You can opt out (via a link) from the use of generic personal information by a third party, which uses it for advertising.'
p1434
sa(dp1435
g2
V browsers will tell you how to prevent your browser from accepting new cookies, how to have the browser notify you when you receive a new cookie, or how to disable cookies altogether. Additionally, you can disable or delete similar data used by browser add-ons, such as Flash cookies, by changing the add-on's settings or visiting the Web site of its manufacturer Amazon.com products and services that require you to Sign in add items to your Shopping Cart, proceed to Checkout
p1436
sg4
S'9086'
p1437
sg6
S'User Choice/Control'
p1438
sg8
S'You can use privacy configuration settings (in your browser or on your device) to control the use of unspecified information by the site, which collects it for a basic service or feature.'
p1439
sa(dp1440
g2
V Because cookies allow you to take advantage of some of Amazon.com's essential features, we recommend that you leave them turned on. For instance, if you block or otherwise reject our cookies Amazon.com products require you to Sign in you will not be able to add items to your Shopping Cart, proceed to Checkout, or use any Amazon.com products and services that require you to Sign in
p1441
sg4
S'9089'
p1442
sg6
S'User Choice/Control'
p1443
sg8
S'A user without an account can choose not to use a service or feature to avoid the use of unspecified information by the site, which collects it for a basic service or feature.'
p1444
sa(dp1445
g2
V does not sell products for purchase by children. We sell children's products for purchase by adults. If you are under 18, you may use Amazon.com only with the involvement of a parent or guardian
p1446
sg4
S'9091'
p1447
sg6
S'International and Specific Audiences'
p1448
sg8
S'The policy makes a statement about how data from children is treated.'
p1449
sa(dp1450
g2
V Safe Harbor program
p1451
sg4
S'9094'
p1452
sg6
S'Data Security'
p1453
sg8
S'The company/organization has a privacy or security program/organization in place addressing, for example, how to protect data against unauthorized access or privacy training for employees.'
p1454
sa(dp1455
g2
V compliance with the US-EU and US-Swiss Safe Harbor Principles
p1456
sg4
S'9097'
p1457
sg6
S'Data Security'
p1458
sg8
S'The company/organization has a privacy or security program/organization in place addressing, for example, how to protect data against unauthorized access or privacy training for employees.'
p1459
sa(dp1460
g2
V any unresolved privacy complaints can be referred to an independent dispute resolution mechanism. We use the BBB EU Safe Harbor Program, which is operated by the Council of Better Business Bureaus. If you feel that we have not satisfactorily addressed your complaint, you can visit the BBB EU Safe Harbor Program
p1461
sg4
S'9098'
p1462
sg6
S'Data Security'
p1463
sg8
S'Privacy practices and security measures of the first party or third party are reviewed/audited by internal or external reviewers/auditors.'
p1464
sa(dp1465
g2
V your visit and any dispute over privacy is subject to this Notice and our Conditions of Use, including limitations on damages, resolution of disputes, and application of the law of the state of Washington. If you have any concern about privacy at Amazon.com, please contact us with a thorough description, and we will try to resolve it. Our business changes constantly, and our Privacy Notice and the Conditions of Use will change also. We may e-mail periodic reminders of our notices and conditions, but you should check our Web site frequently to see recent changes. Unless stated otherwise, our current Privacy Notice applies to all information that we have about you and your account. We stand behind the promises we make, however, and will never materially change our policies and practices to make them less protective of customer information collected in the past without the consent of affected customers
p1466
sg4
S'9790'
p1467
sg6
S'Other'
p1468
sg8
S'The text describes how to contact the company with questions, concerns, or complaints about the privacy policy.'
p1469
sa(dp1470
g2
V Related Practices and Information Conditions of Use Discussion Boards Community Rules Help department Most Recent Purchases
p1471
sg4
S'9791'
p1472
sg6
S'Other'
p1473
sg8
S'The text introduces the policy, a section, or a group of practices, but it does not mention a specific practice.'
p1474
sa(dp1475
g2
V search for a product; place an order through Amazon.com or one of our third-party sellers; provide information in Your Account (and you might have more than one if you have used more than one e-mail address when shopping with us) or Your Profile ; communicate with us by phone, e-mail, or otherwise; complete a questionnaire or a contest entry form; use our services such as Amazon Instant Video; compile Wish Lists or other gift registries; participate in Discussion Boards or other community features; provide and rate Reviews; and employ Product Availability Alerts, such as Available to Order Notifications You provide most such information when you search, buy, post, participate in a contest or questionnaire, or communicate with customer service name, address, and phone numbers
p1476
sg4
S'9792'
p1477
sg6
S'First Party Collection/Use'
p1478
sg8
S'The site collects your contact information for an unspecified purpose. Collection happens when you explicitly provide information on the website.'
p1479
sa(dp1480
g2
V search for a product; place an order through Amazon.com or one of our third-party sellers; provide information in Your Account (and you might have more than one if you have used more than one e-mail address when shopping with us) or Your Profile ; communicate with us by phone, e-mail, or otherwise; complete a questionnaire or a contest entry form; use our services such as Amazon Instant Video; compile Wish Lists or other gift registries; participate in Discussion Boards or other community features; provide and rate Reviews; and employ Product Availability Alerts, such as Available to Order Notifications You provide most such information when you search, buy, post, participate in a contest or questionnaire, or communicate with customer service credit card information
p1481
sg4
S'9793'
p1482
sg6
S'First Party Collection/Use'
p1483
sg8
S'The site collects your financial information for an unspecified purpose. Collection happens when you explicitly provide information on the website.'
p1484
sa(dp1485
g2
V search for a product; place an order through Amazon.com or one of our third-party sellers; provide information in Your Account (and you might have more than one if you have used more than one e-mail address when shopping with us) or Your Profile ; communicate with us by phone, e-mail, or otherwise; complete a questionnaire or a contest entry form; use our services such as Amazon Instant Video; compile Wish Lists or other gift registries; participate in Discussion Boards or other community features; provide and rate Reviews; and employ Product Availability Alerts, such as Available to Order Notifications You provide most such information when you search, buy, post, participate in a contest or questionnaire, or communicate with customer service Social Security and driver's license numbers
p1486
sg4
S'9794'
p1487
sg6
S'First Party Collection/Use'
p1488
sg8
S'The site collects something that uniquely identifies you for an unspecified purpose. Collection happens when you explicitly provide information on the website.'
p1489
sa(dp1490
g2
V information we collect Internet protocol (IP) address used to connect your computer to the Internet help us identify your device for fraud prevention
p1491
sg4
S'9795'
p1492
sg6
S'First Party Collection/Use'
p1493
sg8
S'The site collects your IP address or device IDs for service operations or security. Collection happens on the website.'
p1494
sa(dp1495
g2
V information we collect time zone setting diagnostic purposes
p1496
sg4
S'9796'
p1497
sg6
S'First Party Collection/Use'
p1498
sg8
S'The site collects your location information for analytics or research. Collection happens on the website.'
p1499
sa(dp1500
g2
V information we collect browser type, version, and time zone setting, browser plug-in types and versions, operating system, and platform help us identify your device for fraud prevention
p1501
sg4
S'9797'
p1502
sg6
S'First Party Collection/Use'
p1503
sg8
S'The site collects your computer information for service operations or security. Collection happens on the website.'
p1504
sa(dp1505
g2
V information we collect browser type, version, and time zone setting, browser plug-in types and versions, operating system, and platform create features like Top Sellers we sometimes aggregate with similar information from other customers
p1506
sg4
S'9798'
p1507
sg6
S'First Party Collection/Use'
p1508
sg8
S'The site collects your computer information for a basic service or feature. Collection happens on the website, and your data is aggregated or anonymized.'
p1509
sa(dp1510
g2
V information we collect the full Uniform Resource Locator (URL) clickstream to, through, and from our Web site, including date and time; cookie number create features like Top Sellers we sometimes aggregate with similar information from other customers
p1511
sg4
S'9799'
p1512
sg6
S'First Party Collection/Use'
p1513
sg8
S'The site collects your cookies or tracking elements for a basic service or feature. Collection happens on the website, and your data is aggregated or anonymized.'
p1514
sa(dp1515
g2
V information we collect browser type, version, and time zone setting, browser plug-in types and versions, operating system, and platform help us identify your device for fraud prevention your device
p1516
sg4
S'9800'
p1517
sg6
S'First Party Collection/Use'
p1518
sg8
S'The site collects your computer information for service operations or security. Collection happens on the website, and your data is identifiable.'
p1519
sa(dp1520
g2
V Automatic Information information we collect Internet protocol (IP) address used to connect your computer to the Internet help us identify your device for fraud prevention
p1521
sg4
S'9801'
p1522
sg6
S'First Party Collection/Use'
p1523
sg8
S'The site collects your IP address or device IDs for service operations or security. Collection happens when you implicitly provide information on the website.'
p1524
sa(dp1525
g2
V mobile devices location location services. Most likely, these controls are located in the device's settings menu. For information about specific devices, click here . If you have questions about how to disable your device's location services, we recommend you contact your mobile service carrier or your device manufacturer
p1526
sg4
S'9802'
p1527
sg6
S'First Party Collection/Use'
p1528
sg8
S'The site collects your location information for an unspecified purpose. Collection happens in the mobile app. You can configure your privacy with browser settings.'
p1529
sa(dp1530
g2
V our carriers or other third parties updated delivery and address information which we use to correct our records and deliver your next purchase or communication more easily
p1531
sg4
S'9803'
p1532
sg6
S'First Party Collection/Use'
p1533
sg8
S'The site collects your contact information for a basic service or feature. Collection happens by an unnamed service or third party.'
p1534
sa(dp1535
g2
V our carriers or other third parties account information, purchase or redemption information, and page-view information which we use to correct our records and deliver your next purchase or communication more easily
p1536
sg4
S'9804'
p1537
sg6
S'First Party Collection/Use'
p1538
sg8
S'The site collects your user profile for a basic service or feature. Collection happens by an unnamed service or third party.'
p1539
sa(dp1540
g2
V search term and search result information from some searches conducted through the Web search features account information, purchase or redemption information, and page-view information which we use to correct our records and deliver your next purchase or communication more easily
p1541
sg4
S'9805'
p1542
sg6
S'First Party Collection/Use'
p1543
sg8
S'The site collects your user profile for a basic service or feature. Collection happens by other websites.'
p1544
sa(dp1545
g2
V search term and search result information from some searches conducted through the Web search features credit history information from credit bureaus offer certain credit or financial services to some customers
p1546
sg4
S'9806'
p1547
sg6
S'First Party Collection/Use'
p1548
sg8
S'The site collects your financial information for service operations or security. Collection happens by other websites.'
p1549
sa(dp1550
g2
V Starbucks, OfficeMax, Verizon Wireless, Sprint, T-Mobile, AT&T, J&R Electronics, Eddie Bauer and Northern Tool + Equipment
p1551
sg4
S'9807'
p1552
sg6
S'Third Party Sharing/Collection'
p1553
sg8
S'A named third party does do something unspecified with unspecified information about you for an unspecified purpose.'
p1554
sa(dp1555
g2
V you can access easily include up-to-date information regarding recent orders; personally identifiable information (including name, e-mail, password, communications and personalized advertising preferences, address book, and 1-Click settings); payment settings (including credit card information and promotional certificate and gift card balances); e-mail notification settings
p1556
sg4
S'9808'
p1557
sg6
S'User Access, Edit and Deletion'
p1558
sg8
S'A user can access, edit, or delete personal information in an unspecified manner, within the scope of information explicitly provided by the user.'
p1559
sa(dp1560
g2
V you can access easily Recommendations (including Recommended for You and Improve Your Recommendations); shopping lists and gift registries (including Wish Lists and Baby and Wedding Registries); Seller accounts; and Your Profile (including your product Reviews, Recommendations, Listmania lists, Reminders, personal profile, and Wish List)
p1561
sg4
S'9809'
p1562
sg6
S'User Access, Edit and Deletion'
p1563
sg8
S'A user can access, edit, or delete personal information in an unspecified manner, within the scope of information the company has learned about the user.'
p1564
sa.