(dp0
S'The site collects your IP address or device IDs for analytics or research. Collection happens in an unspecified way.'
p1
S'Collection'
p2
sS'The site collects your location information for an unspecified purpose. Collection happens on the website, and your data is aggregated or anonymized.'
p3
g2
sS'The public does do something unspecified with unspecified information about you for an unspecified purpose.'
p4
S'Use'
p5
sS'You can choose not to use a service or feature to avoid the use of generic personal information by a third party, which collects or receives it for an additional (non-basic) service or feature.'
p6
S'Choices'
p7
sS'The site collects your website activities for personalization or customization. Collection happens in an unspecified way.'
p8
g2
sS'The site collects your generic personal information for analytics or research. Collection happens by a named service or third party, and your data is aggregated or anonymized.'
p9
g2
sS'The site collects your unspecified information for personalization or customization. Collection happens on the website.'
p10
g2
sS'The site collects your cookies or tracking elements for personalization or customization. Collection happens when you implicitly provide information on the website, and your data is aggregated or anonymized. You can configure your privacy with browser settings.'
p11
g2
sS'The site collects your IP address or device IDs for an unspecified purpose. Collection happens in an unspecified way, and your data is aggregated or anonymized.'
p12
g2
sS'An unnamed third party does receive unspecified information about you for an additional (non-basic) service or feature.'
p13
g5
sS'The site collects your generic personal information for a basic service or feature. Collection happens in an unspecified way. You can make a choice about the use of your information.'
p14
g2
sS'An unnamed third party does track on the first party website or app your computer information for targeted advertising.'
p15
g5
sS"A user's unspecified information is retained for a limited (but unspecified) period of time to meet legal or law enforcement requirements, and then it is deleted.."
p16
S'Disclosure'
p17
sS'A user can view their information, within the scope of unspecified user information.'
p18
S'None'
p19
sS'The site collects your unspecified information for marketing purposes. Collection happens in an unspecified way.'
p20
g2
sS'The site collects your cookies or tracking elements for service operations or security. Collection happens when you implicitly provide information on the website.'
p21
g2
sS'The site collects your generic personal information for advertising. Collection happens when you implicitly provide information by an unnamed service or third party, and your data is identifiable.'
p22
g2
sS'The site collects your computer information for analytics or research. Collection happens in an unspecified way.'
p23
g2
sS'The site collects your user profile for an additional (non-basic) service or feature. Collection happens when you explicitly provide information in an unspecified way.'
p24
g2
sS'The site collects your location information for an unspecified purpose. Collection happens in an unspecified way.'
p25
g2
sS'You can use third party privacy settings to control the use of cookies and tracking elements by an unspecified party for advertising.'
p26
g7
sS'The site collects your website activities for an unspecified purpose. Collection happens when you implicitly provide information in an unspecified way. You can choose not to use the service or feature.'
p27
g2
sS'The site collects your demographic information for personalization or customization. Collection happens when you explicitly provide information in an unspecified way, and your data is identifiable.'
p28
g2
sS'An unspecified third party does receive unspecified information about you for mergers or acquisitions.'
p29
g5
sS'The site collects your generic personal information for an unspecified purpose. Collection happens when you implicitly provide information on the website.'
p30
g2
sS'An unnamed third party does receive your unspecified personal information for legal requirements.'
p31
g5
sS'The site collects your contact information for a basic service or feature. Collection happens when you explicitly provide information in an unspecified way.'
p32
g2
sS'A user with an account can opt in for the use of contact information by a third party, which collects or receives it for an additional (non-basic) service or feature.'
p33
g7
sS'An unnamed third party does track on the first party website or app your cookies or tracking elements for targeted advertising. The data is aggregated or anonymized.'
p34
g5
sS'The site collects your IP address or device IDs for an unspecified purpose. Collection happens in an unspecified way.'
p35
g2
sS'An unnamed third party does receive your activities on the website or app for targeted advertising. The data is aggregated or anonymized.'
p36
g5
sS'The site collects your website activities for a basic service or feature. Collection happens in an unspecified way.'
p37
g2
sS'The site collects your cookies or tracking elements for an unspecified purpose. Collection happens in an unspecified way. You can opt out using the provided link.'
p38
g2
sS'The site collects your unspecified information for an unspecified purpose. Collection happens when you implicitly provide information by an unnamed service or third party.'
p39
g2
sS'You can opt out (by contacting the company) from the use of generic personal information by a third party, which collects or receives it for advertising.'
p40
g7
sS'The site collects your computer information for an unspecified purpose. Collection happens in an unspecified way, and your data is aggregated or anonymized.'
p41
g2
sS'A named third party does do something unspecified with your unspecified personal information for an unspecified purpose. The data is personally identifiable. You can opt out by contacting the company.'
p42
g5
sS"The site collects your unspecified information for an unspecified purpose. Collection happens when you explicitly provide information in an unspecified way, and your data's identifiability is not covered by our label scheme."
p43
g2
sS'The site collects your unspecified information for a basic service or feature. Collection happens in the mobile app.'
p44
g2
sS'An unnamed third party does receive your unspecified personal information for targeted advertising.'
p45
g5
sS'You can make a choice about your privacy not described by our label scheme the use of unspecified information by a third party, which collects or receives it for an additional (non-basic) service or feature.'
p46
g7
sS'An unnamed third party does do something unspecified with your activities on the website or app for targeted advertising.'
p47
g5
sS'You can make a choice about your privacy not described by our label scheme the use of generic personal information by a third party, which collects or receives it for an unspecified purpose.'
p48
g7
sS'An unnamed third party does not receive your unspecified personal information for an unspecified purpose. The data is personally identifiable.'
p49
g5
sS'The site collects your website activities for an unspecified purpose. Collection happens by an unnamed service or third party, and your data is aggregated or anonymized.'
p50
g2
sS'You can choose not to use a service or feature to avoid the use of unspecified information by an unspecified party for an unspecified purpose.'
p51
g7
sS'An unnamed third party does receive your unspecified personal information for marketing purposes. The data is personally identifiable.'
p52
g5
sS'An unnamed third party does do something unspecified with your IP address or device IDs for analytics or research.'
p53
g5
sS'The site collects your demographic information for a basic service or feature. Collection happens in an unspecified way.'
p54
g2
sS'The site collects your location information for an unspecified purpose. Collection happens in the mobile app.'
p55
g2
sS'The site collects your location information for a basic service or feature. Collection happens in an unspecified way.'
p56
g2
sS'The site collects your unspecified information for an additional (non-basic) service or feature. Collection happens when you explicitly provide information on the website, and your data is identifiable.'
p57
g2
sS'The site collects your unspecified information for personalization or customization. Collection happens in an unspecified way.'
p58
g2
sS'Users with accounts can edit their information, within the scope of unspecified user information.'
p59
g19
sS'The site collects your demographic information for an unspecified purpose. Collection happens when you explicitly provide information in an unspecified way.'
p60
g2
sS'The site collects your location information for an unspecified purpose. Collection happens on the website.'
p61
g2
sS'An unnamed third party does receive your unspecified personal information for an additional (non-basic) service or feature. You can choose not to use the service or feature for the use of your information.'
p62
g5
sS'The site collects your location information for a basic service or feature. Collection happens in an unspecified way, and your data is identifiable.'
p63
g2
sS'The site collects your generic personal information for personalization or customization. Collection happens in an unspecified way.'
p64
g2
sS'The site collects your generic personal information for marketing purposes. Collection happens in an unspecified way.'
p65
g2
sS'The site collects your cookies or tracking elements for analytics or research. Collection happens by some means outside of our label scheme.'
p66
g2
sS'The site collects your cookies or tracking elements for advertising. Collection happens when you implicitly provide information in an unspecified way. You can configure your privacy with third-party user settings.'
p67
g2
sS'You can opt in for the use of generic personal information by a third party, which collects or receives it for an unspecified purpose.'
p68
g7
sS'The site collects your unspecified information for an unspecified purpose. Collection happens in the mobile app.'
p69
g2
sS'The site collects your generic personal information for a basic service or feature. Collection happens when you explicitly provide information on the website, and your data is identifiable.'
p70
g2
sS'The site collects your unspecified information for marketing purposes. Collection happens on the website.'
p71
g2
sS'The site collects your demographic information for analytics or research. Collection happens in an unspecified way.'
p72
g2
sS'The site collects your generic personal information for an unspecified purpose. Collection happens when you explicitly provide information in an unspecified way.'
p73
g2
sS'The site collects your unspecified information for personalization or customization. Collection happens when you explicitly provide information on the website, and your data is identifiable.'
p74
g2
sS'The site collects your unspecified information for service operations or security. Collection happens when you explicitly provide information on the website.'
p75
g2
sS'An unnamed third party does receive your unspecified personal information for an additional (non-basic) service or feature.'
p76
g5
sS'A user can delete their account (although the company or organization may continue to keep some data), within the scope of information explicitly provided by the user.'
p77
g19
sS'The site collects your survey data for an unspecified purpose. Collection happens by other websites.'
p78
g2
sS'An unnamed third party does do something unspecified with your IP address or device IDs for personalization or customization.'
p79
g5
sS'The site collects your cookies or tracking elements for an unspecified purpose. Collection happens when you implicitly provide information on the website. You can configure your privacy with browser settings.'
p80
g2
sS'An unnamed third party does collect on the first party website or app your cookies or tracking elements for an unspecified purpose.'
p81
g5
sS'The site collects your location information for an additional (non-basic) service or feature. Collection happens in the mobile app. You can opt in for data collection.'
p82
g2
sS'The site collects your generic personal information for analytics or research. Collection happens on the website.'
p83
g2
sS'An unnamed third party does receive unspecified information about you for an unspecified purpose. The data is aggregated or anonymized.'
p84
g5
sS'Another part of the company or institution does receive your unspecified personal information for service operations or security. The data is personally identifiable.'
p85
g5
sS'The site collects your generic personal information for analytics or research. Collection happens when you implicitly provide information in an unspecified way.'
p86
g2
sS'The site collects your IP address or device IDs for service operations or security. Collection happens when you implicitly provide information in an unspecified way.'
p87
g2
sS'The site collects your cookies or tracking elements for personalization or customization. Collection happens by some means outside of our label scheme.'
p88
g2
sS'An unspecified third party does receive unspecified information about you for legal requirements.'
p89
g5
sS'Another part of the company or institution does collect on the first party website or app your cookies or tracking elements for an unspecified purpose. The data is personally identifiable.'
p90
g5
sS'The site collects your location information for an additional (non-basic) service or feature. Collection happens when you implicitly provide information in the mobile app. You can opt in for data collection for the use of your information.'
p91
g2
sS'The site collects your location information for an additional (non-basic) service or feature. Collection happens in the mobile app.'
p92
g2
sS'Another part of the company or institution does receive your unspecified personal information for a basic service or feature. The data is personally identifiable.'
p93
g5
sS'The site collects your cookies or tracking elements for analytics or research. Collection happens when you implicitly provide information on the website, and your data is aggregated or anonymized.'
p94
g2
sS'You can use third party privacy settings to control the use of unspecified information by an unspecified party for an unspecified purpose.'
p95
g7
sS'The site collects your cookies or tracking elements for personalization or customization. Collection happens on the website.'
p96
g2
sS"The website ignores Do Not Track headers and the user's Do Not Track preference."
p97
g2
sS'The site collects your location information for an unspecified purpose. Collection happens in an unspecified way, and your data is aggregated or anonymized.'
p98
g2
sS'The site collects your contact information for a basic service or feature. Collection happens when you explicitly provide information on the website, and your data is identifiable.'
p99
g2
sS'The site collects your generic personal information for marketing purposes. Collection happens when you implicitly provide information on the website, and your data is identifiable.'
p100
g2
sS'The site collects your computer information for an unspecified purpose. Collection happens when you implicitly provide information in an unspecified way.'
p101
g2
sS'An unnamed third party does track on the first party website or app your cookies or tracking elements for targeted advertising. You can configure your privacy with third-party user settings.'
p102
g5
sS'An unnamed third party does not receive your contact information for marketing purposes. You can opt out by contacting the company.'
p103
g5
sS'The site collects your contact information for a basic service or feature. Collection happens in an unspecified way, and your data is identifiable.'
p104
g2
sS'The site collects your generic personal information for an additional (non-basic) service or feature. Collection happens when you explicitly provide information on the website, and your data is identifiable. You can opt in for data collection.'
p105
g2
sS'The site collects your website activities for an unspecified purpose. Collection happens in an unspecified way. You can opt in for data collection for the collection of your information.'
p106
g2
sS'The site collects your generic personal information for personalization or customization. Collection happens when you implicitly provide information on the website for users with accounts, and your data is identifiable.'
p107
g2
sS"A user's unspecified information is retained for a limited (but unspecified) period of time to fulfill a purpose not covered by our label scheme."
p108
g17
sS'A named third party does not receive your cookies or tracking elements for an unspecified purpose. The data is personally identifiable. You can opt in for data collection.'
p109
g5
sS'When a change of an unspecified nature is made to the privacy policy, users are personally notified. Users can participate in a process to influence the change.'
p110
g7
sS'The site collects your generic personal information for service operations or security. Collection happens in an unspecified way.'
p111
g2
sS'An unnamed third party does receive your unspecified personal information for an additional (non-basic) service or feature. The data is personally identifiable.'
p112
g5
sS'An unnamed third party does receive your activities on the website or app for an unspecified purpose. The data is aggregated or anonymized.'
p113
g5
sS"When a change is made to the privacy policy that significantly affects data practices, users are notified in an unspecified manner. Users' choices regarding policy changes are not mentioned or are unclear."
p114
g7
sS'An unnamed third party does do something unspecified with your location information for targeted advertising.'
p115
g5
sS'The site collects your cookies or tracking elements for advertising. Collection happens in an unspecified way.'
p116
g2
sS'The site collects your generic personal information for legal requirements. Collection happens in an unspecified way.'
p117
g2
sS'You can make a choice about your privacy not described by our label scheme the use of generic personal information by the site, which collects it for an unspecified purpose.'
p118
g7
sS'An unnamed third party does receive your unspecified personal information for mergers or acquisitions. The data is personally identifiable.'
p119
g5
sS'When a change of an unspecified nature is made to the privacy policy, users receive no notification. Users can participate in a process to influence the change.'
p120
g7
sS'The site collects your cookies or tracking elements for an unspecified purpose. Collection happens when you implicitly provide information on the website, and your data is identifiable.'
p121
g2
sS'The site collects your location information for personalization or customization. Collection happens when you explicitly provide information in an unspecified way, and your data is identifiable.'
p122
g2
sS'The site collects your computer information for an unspecified purpose. Collection happens on the website.'
p123
g2
sS'The site collects your cookies or tracking elements for analytics or research. Collection happens in an unspecified way, and your data is aggregated or anonymized.'
p124
g2
sS'The site collects your financial information for a basic service or feature. Collection happens in an unspecified way, and your data is identifiable.'
p125
g2
sS'The site collects your location information for analytics or research. Collection happens when you explicitly provide information in an unspecified way.'
p126
g2
sS'The site collects your unspecified information for an unspecified purpose. Collection happens on the website, and your data is aggregated or anonymized.'
p127
g2
sS'An unnamed third party does not receive unspecified information about you for an unspecified purpose. You can opt in for data collection.'
p128
g5
sS'The site collects your cookies or tracking elements for advertising. Collection happens on the website.'
p129
g2
sS'The site collects an information type outside of our label scheme for an additional (non-basic) service or feature. Collection happens when you explicitly provide information on the website, and your data is identifiable. You can opt in for data collection for the collection of your information.'
p130
g2
sS'The site collects your cookies or tracking elements for advertising. Collection happens on the website. You can configure your privacy with browser settings.'
p131
g2
sS'The site collects your contact information for an additional (non-basic) service or feature. Collection happens in an unspecified way, and your data is identifiable.'
p132
g2
sS'The site collects your generic personal information for analytics or research. Collection happens when you explicitly provide information in an unspecified way.'
p133
g2
sS'The public does see your contact information for an additional (non-basic) service or feature.'
p134
g5
sS'An unnamed third party does receive unspecified information about you for mergers or acquisitions.'
p135
g5
sS'The public does receive your unspecified personal information for an unspecified purpose. You can opt in for data collection.'
p136
g5
sS'The site collects your unspecified information for service operations or security. Collection happens when you implicitly provide information in an unspecified way.'
p137
g2
sS'The site collects your unspecified information for marketing purposes. Collection happens when you implicitly provide information on the website, and your data is identifiable.'
p138
g2
sS'The site collects your generic personal information for an additional (non-basic) service or feature. Collection happens when you explicitly provide information in an unspecified way.'
p139
g2
sS'The site collects your unspecified information for marketing purposes. Collection happens in an unspecified way, and your data is identifiable.'
p140
g2
sS'When a change is made to the privacy policy that significantly affects data practices, users are notified in an unspecified manner. Users must agree before their data is treated according to the new privacy policy.'
p141
g7
sS'An unnamed third party does track on the first party website or app your cookies or tracking elements for an unspecified purpose. You can configure your privacy with browser settings.'
p142
g5
sS'The site collects your IP address or device IDs for analytics or research. Collection happens on the website.'
p143
g2
sS'The site collects your social media data for an unspecified purpose. Collection happens on the website, and your data is identifiable.'
p144
g2
sS'An unnamed third party does receive your unspecified personal information for a basic service or feature. The data is personally identifiable. You can opt out by contacting the company for the use of your information.'
p145
g5
sS'The site collects your cookies or tracking elements for an unspecified purpose. Collection happens in an unspecified way. You can configure your privacy with browser settings.'
p146
g2
sS'The site collects your cookies or tracking elements for advertising. Collection happens when you implicitly provide information on the website.'
p147
g2
sS'An unnamed third party does receive unspecified information about you for marketing purposes.'
p148
g5
sS'The site collects your website activities for marketing purposes. Collection happens by some means outside of our label scheme.'
p149
g2
sS'A named third party does receive your unspecified personal information for targeted advertising. The data is aggregated or anonymized.'
p150
g5
sS'The site collects your cookies or tracking elements for analytics or research. Collection happens when you implicitly provide information on the website.'
p151
g2
sS'The site collects your generic personal information for an additional (non-basic) service or feature. Collection happens in an unspecified way.'
p152
g2
sS'The site collects your unspecified information for marketing purposes. Collection happens when you implicitly provide information by an unnamed service or third party.'
p153
g2
sS'The site collects your contact information for an additional (non-basic) service or feature. Collection happens when you explicitly provide information in an unspecified way.'
p154
g2
sS'The site collects your IP address or device IDs for an unspecified purpose. Collection happens in an unspecified way. You can opt in for data collection for the collection of your information.'
p155
g2
sS'The site collects your IP address or device IDs for a purpose outside of our label scheme. Collection happens in an unspecified way.'
p156
g2
sS'A user can delete their account (although the company or organization may continue to keep some data), within the scope of information the company has learned about the user.'
p157
g19
sS'The site collects your demographic information for an unspecified purpose. Collection happens on the website, and your data is aggregated or anonymized.'
p158
g2
sS'You can use third party privacy settings to control the use of unspecified information by a third party, which uses it for advertising.'
p159
g7
sS'The site collects your generic personal information for an unspecified purpose. Collection happens when you implicitly provide information by an unnamed service or third party.'
p160
g2
sS'An unnamed third party does receive your unspecified personal information for legal requirements. The data is personally identifiable.'
p161
g5
sS'A named third party does not receive your contact information for an unspecified purpose. The data is personally identifiable. You can opt in for data collection.'
p162
g5
sS'An unnamed third party does receive unspecified information about you for an unspecified purpose.'
p163
g5
sS'The site collects your generic personal information for a basic service or feature. Collection happens in an unspecified way, and your data is identifiable.'
p164
g2
sS'The site collects your cookies or tracking elements for advertising. Collection happens in an unspecified way, and your data is aggregated or anonymized.'
p165
g2
sS'The site collects your contact information for personalization or customization. Collection happens by an unnamed service or third party.'
p166
g2
sS'The site collects your social media data for an unspecified purpose. Collection happens by other websites, and your data is identifiable.'
p167
g2
sS'You can opt in for the use of unspecified information by a third party, which collects or receives it for an unspecified purpose.'
p168
g7
sS'Another part of the company or institution does receive unspecified information about you for a basic service or feature. The data is personally identifiable.'
p169
g5
sS'A named third party does receive your unspecified personal information for targeted advertising. The data is personally identifiable. You can opt out by contacting the company.'
p170
g5
sS'An unnamed third party does collect on the first party website or app your cookies or tracking elements for targeted advertising.'
p171
g5
sS'A named third party does do something outside of our label scheme with your activities on the website or app for targeted advertising.'
p172
g5
sS'An unnamed third party does receive your contact information for targeted advertising. The data is personally identifiable. You can opt out by contacting the company for the use of your information.'
p173
g5
sS'An unnamed third party does receive unspecified information about you for analytics or research. The data is aggregated or anonymized.'
p174
g5
sS'You can opt in for the use of activities on the website or app by a third party, which collects or receives it for an unspecified purpose.'
p175
g7
sS'The site collects your unspecified information for an unspecified purpose. Collection happens when you implicitly provide information by other parts of the company or affiliates, and your data is identifiable.'
p176
g2
sS'The site collects your cookies or tracking elements for marketing purposes. Collection happens when you implicitly provide information on the website, and your data is aggregated or anonymized.'
p177
g2
sS'An unnamed third party does do something unspecified with your activities on the website or app for personalization or customization.'
p178
g5
sS'An unspecified third party does receive your activities on the website or app for an additional (non-basic) service or feature.'
p179
g5
sS'The site collects an information type outside of our label scheme for an unspecified purpose. Collection happens in an unspecified way.'
p180
g2
sS'You can use privacy configuration settings (in your browser or on your device) to control the use of cookies and tracking elements by the site, which collects it for an unspecified purpose.'
p181
g7
sS'The site collects your cookies or tracking elements for personalization or customization. Collection happens when you implicitly provide information on the website. You can configure your privacy with third-party user settings.'
p182
g2
sS'The site collects your generic personal information for an unspecified purpose. Collection happens when you implicitly provide information by a named service or third party.'
p183
g2
sS'An unnamed third party does do something unspecified with your activities on the website or app for analytics or research.'
p184
g5
sS'The site collects your contact information for a basic service or feature. Collection happens on the website for users with accounts.'
p185
g2
sS'The public does do something unspecified with your user profile for an unspecified purpose.'
p186
g5
sS'You can make no specified choices about the use of unspecified information by the site, which uses it for a purpose outside of our label scheme.'
p187
g7
sS'The site collects your cookies or tracking elements for advertising. Collection happens when you implicitly provide information in an unspecified way.'
p188
g2
sS'A user with an account can make a choice about your privacy not described by our label scheme the use of contact information by the site, which uses it for a purpose outside of our label scheme.'
p189
g7
sS'The site collects your generic personal information for personalization or customization. Collection happens when you explicitly provide information on the website, and your data is identifiable.'
p190
g2
sS'An unnamed third party does do something unspecified with your IP address or device IDs for targeted advertising.'
p191
g5
sS'A named third party does not track on the first party website or app your contact information for an unspecified purpose.'
p192
g5
sS"A user's unspecified information is retained for an unspecified duration to fulfill an unspecified purpose."
p193
g17
sS'The site collects your IP address or device IDs for advertising. Collection happens in an unspecified way.'
p194
g2
sS'The site collects your cookies or tracking elements for an additional (non-basic) service or feature. Collection happens when you implicitly provide information in an unspecified way, and your data is identifiable. You can configure your privacy with browser settings for the collection of your information.'
p195
g2
sS'The site collects your generic personal information for analytics or research. Collection happens when you explicitly provide information in an unspecified way, and your data is identifiable.'
p196
g2
sS'The site does not collect your unspecified information for an unspecified purpose. Collection happens when you explicitly provide information on the website.'
p197
g2
sS'The site collects your unspecified information for service operations or security. Collection happens in an unspecified way.'
p198
g2
sS'The site collects your generic personal information for marketing purposes. Collection happens when you implicitly provide information in an unspecified way, and your data is identifiable. You can opt out by contacting the company for the use of your information.'
p199
g2
sS'An unnamed third party does do something outside of our label scheme with your cookies or tracking elements for an unspecified purpose.'
p200
g5
sS'You can opt in for the use of unique personal identifier by the site, which collects it for an unspecified purpose.'
p201
g7
sS'The site collects your computer information for analytics or research. Collection happens by some means outside of our label scheme.'
p202
g2
sS'An unnamed third party does track on the first party website or app unspecified information about you for analytics or research. The data is aggregated or anonymized.'
p203
g5
sS'A named third party does receive your unspecified personal information for marketing purposes. The data is personally identifiable. You can opt out by contacting the company.'
p204
g5
sS'A named third party does receive your unspecified personal information for an additional (non-basic) service or feature. The data is personally identifiable. You can opt out by contacting the company.'
p205
g5
sS'The site collects your user profile for an unspecified purpose. Collection happens by other websites.'
p206
g2
sS'The site collects your generic personal information for a basic service or feature. Collection happens when you explicitly provide information in an unspecified way.'
p207
g2
sS'Another part of the company or institution does receive your unspecified personal information for mergers or acquisitions.'
p208
g5
sS'The site collects your contact information for a basic service or feature. Collection happens by some means outside of our label scheme. You can configure your privacy using a method outside our label scheme for the use of your information.'
p209
g2
sS'An unnamed third party does receive your unspecified personal information for service operations or security. The data is personally identifiable.'
p210
g5
sS'The site collects your unspecified information for an unspecified purpose. Collection happens in an unspecified way.'
p211
g2
sS'The site collects your generic personal information for marketing purposes. Collection happens when you explicitly provide information in an unspecified way.'
p212
g2
sS'You can make no specified choices about the use of unspecified information by an unspecified party for marketing purposes.'
p213
g7
sS'A named third party does receive your unspecified personal information for analytics or research. The data is personally identifiable. You can opt out by contacting the company.'
p214
g5
sS'The site collects your demographic information for an unspecified purpose. Collection happens when you explicitly provide information in an unspecified way for users with accounts, and your data is aggregated or anonymized. You can opt in for data collection for the collection of your information.'
p215
g2
sS'An unnamed third party does receive your location information for an additional (non-basic) service or feature. You can choose not to use the service or feature.'
p216
g5
sS'Users with accounts can view their information, within the scope of unspecified user information.'
p217
g19
sS'You can opt in for the use of generic personal information by the site, which uses it for an unspecified purpose.'
p218
g7
sS'The site collects your computer information for personalization or customization. Collection happens when you implicitly provide information on the website.'
p219
g2
sS'Another part of the company or institution does see your unspecified personal information for marketing purposes. The data is personally identifiable.'
p220
g5
sS'You can opt out (by contacting the company) from the use of unspecified information by an unspecified party for marketing purposes.'
p221
g7
sS'An unnamed third party does do something unspecified with your cookies or tracking elements for targeted advertising.'
p222
g5
sS'The site collects your IP address or device IDs for an unspecified purpose. Collection happens on the website, and your data is aggregated or anonymized.'
p223
g2
sS'An unnamed third party does do something unspecified with your unspecified personal information for service operations or security.'
p224
g5
sS'The site collects your generic personal information for marketing purposes. Collection happens in an unspecified way, and your data is identifiable. You can opt out by contacting the company.'
p225
g2
sS'The site collects your website activities for an unspecified purpose. Collection happens on the website, and your data is aggregated or anonymized.'
p226
g2
sS'An unnamed third party does track on the first party website or app your cookies or tracking elements for analytics or research.'
p227
g5
sS'The site collects your contact information for an unspecified purpose. Collection happens when you explicitly provide information in an unspecified way.'
p228
g2
sS'You can use privacy configuration settings (in your browser or on your device) to control the use of cookies and tracking elements by an unspecified party for an unspecified purpose.'
p229
g7
sS'The site collects your unspecified information for a basic service or feature. Collection happens when you explicitly provide information on the website, and your data is identifiable.'
p230
g2
sS'The site collects your demographic information for personalization or customization. Collection happens by an unnamed service or third party.'
p231
g2
sS'The site collects your generic personal information for an unspecified purpose. Collection happens by an unnamed service or third party.'
p232
g2
sS'The site collects your cookies or tracking elements for advertising. Collection happens when you implicitly provide information on the website, and your data is aggregated or anonymized.'
p233
g2
sS'The site collects your unspecified information for an additional (non-basic) service or feature. Collection happens in an unspecified way.'
p234
g2
sS'The site collects your cookies or tracking elements for analytics or research. Collection happens by a named service or third party, and your data is aggregated or anonymized.'
p235
g2
sS'An unnamed third party does receive your unspecified personal information for marketing purposes. The data is personally identifiable. You can opt out by contacting the company for the use of your information.'
p236
g5
sS'The site collects your contact information for an unspecified purpose. Collection happens when you explicitly provide information in an unspecified way, and your data is identifiable.'
p237
g2
sS'The site collects your location information for advertising. Collection happens on the website.'
p238
g2
sS'A user can delete their account (with the company or organization removing all data), within the scope of information the company has learned about the user.'
p239
g19
sS'You can opt out (via a link) from the use of unique personal identifier by the site, which uses it for marketing purposes.'
p240
g7
sS'The site collects your financial information for an additional (non-basic) service or feature. Collection happens in an unspecified way, and your data is identifiable.'
p241
g2
sS'An unnamed third party does receive unspecified information about you for marketing purposes. The data is personally identifiable.'
p242
g5
sS'An unnamed third party does receive unspecified information about you for targeted advertising. The data is aggregated or anonymized.'
p243
g5
sS'The site collects your cookies or tracking elements for a basic service or feature. Collection happens when you implicitly provide information on the website.'
p244
g2
sS'The site collects your IP address or device IDs for an unspecified purpose. Collection happens when you implicitly provide information on the website.'
p245
g2
sS'The site collects your generic personal information for an additional (non-basic) service or feature. Collection happens in an unspecified way, and your data is identifiable.'
p246
g2
sS'You can opt out (via a link) from the use of contact information by an unspecified party for marketing purposes.'
p247
g7
sS'The site collects your location information for an unspecified purpose. Collection happens when you explicitly provide information in an unspecified way for users with accounts, and your data is aggregated or anonymized. You can opt in for data collection for the collection of your information.'
p248
g2
sS'The site collects your unspecified information for analytics or research. Collection happens on the website.'
p249
g2
sS'An unnamed third party does not receive your unspecified personal information for an unspecified purpose. The data is personally identifiable. You can opt in for data collection.'
p250
g5
sS'A named third party does receive your unspecified personal information for a basic service or feature. The data is personally identifiable. You can opt out by contacting the company.'
p251
g5
sS'An unnamed third party does do something unspecified with unspecified information about you for an unspecified purpose.'
p252
g5
sS'The public does do something outside of our label scheme with unspecified information about you for an additional (non-basic) service or feature. You can choose not to use the service or feature.'
p253
g5
sS'The site collects your generic personal information for an unspecified purpose. Collection happens when you explicitly provide information in an unspecified way. You can choose not to use the service or feature for the collection and use of your information.'
p254
g2
sS'An unnamed third party does receive unspecified information about you for mergers or acquisitions. The data is personally identifiable.'
p255
g5
sS'The public does see unspecified information about you for an unspecified purpose. You can opt in for data collection for the collection or sharing and use of your information.'
p256
g5
sS'The site collects your cookies or tracking elements for an unspecified purpose. Collection happens when you implicitly provide information in an unspecified way.'
p257
g2
sS'A third party outside of our label scheme does receive unspecified information about you for an unspecified purpose. You can choose not to use the service or feature.'
p258
g5
sS'The site collects your financial information for a basic service or feature. Collection happens when you explicitly provide information on the website, and your data is identifiable.'
p259
g2
sS'The site collects your generic personal information for marketing purposes. Collection happens when you explicitly provide information on the website, and your data is identifiable.'
p260
g2
sS'An unnamed third party does receive your location information for targeted advertising. The data is personally identifiable. You can opt out by contacting the company for the use of your information.'
p261
g5
sS'The site collects your generic personal information for an unspecified purpose. Collection happens in an unspecified way. You can opt in for data collection for the collection of your information.'
p262
g2
sS'An unnamed third party does collect on the first party website or app your IP address or device IDs for targeted advertising.'
p263
g5
sS'An unnamed third party does receive information about you not covered by our label scheme for an unspecified purpose.'
p264
g5
sS'An unnamed third party does receive your activities on the website or app for personalization or customization. The data is aggregated or anonymized.'
p265
g5
sS'An unnamed third party does do something outside of our label scheme with unspecified information about you for an unspecified purpose.'
p266
g5
sS'A user with an account can opt in for the use of unspecified information by a third party, which collects or receives it for an additional (non-basic) service or feature.'
p267
g7
sS'An unnamed third party does receive your cookies or tracking elements for a basic service or feature.'
p268
g5
sS'An unnamed third party does receive unspecified information about you for an unspecified purpose. You can opt in for data collection.'
p269
g5
sS'The site collects your unspecified information for a basic service or feature. Collection happens when you explicitly provide information in an unspecified way.'
p270
g2
sS"A user's generic personal information is retained for an unspecified duration to fulfill an unspecified purpose."
p271
g17
sS'An unnamed third party does receive unspecified information about you for a basic service or feature.'
p272
g5
sS'The site collects your IP address or device IDs for an unspecified purpose. Collection happens on the website.'
p273
g2
sS'A user can view their information, within the scope of information explicitly provided by the user.'
p274
g19
sS"A user's generic personal information is retained for a limited (but unspecified) period of time to perform a requested service, and then it is deleted.."
p275
g17
sS"When a change of an unspecified nature is made to the privacy policy, users are notified in a manner outside of our label scheme. Users' choices regarding policy changes are not mentioned or are unclear."
p276
g7
sS'The site collects your generic personal information for a basic service or feature. Collection happens when you implicitly provide information on the website, and your data is identifiable.'
p277
g2
sS'The site collects your user profile for a basic service or feature. Collection happens on the website for users with accounts. You can opt in for data collection.'
p278
g2
sS'Data is stored securely, e.g. in an encrypted format or database.'
p279
g17
sS'An unnamed third party does not receive your cookies or tracking elements for an unspecified purpose. The data is personally identifiable. You can opt in for data collection.'
p280
g5
sS'An unspecified third party does receive your unspecified personal information for mergers or acquisitions. The data is personally identifiable.'
p281
g5
sS'The public does receive your activities on the website or app for an unspecified purpose. You can opt in for data collection.'
p282
g5
sS'Users with accounts can view their information, within the scope of information explicitly provided by the user.'
p283
g19
sS'The site collects your generic personal information for an additional (non-basic) service or feature. Collection happens when you explicitly provide information in an unspecified way, and your data is identifiable.'
p284
g2
sS'The site collects your survey data for an unspecified purpose. Collection happens by some means outside of our label scheme.'
p285
g2
sS'The site collects your demographic information for an additional (non-basic) service or feature. Collection happens in an unspecified way, and your data is identifiable.'
p286
g2
sS'A user can edit their information, within the scope of information the company has learned about the user.'
p287
g19
sS'Another part of the company or institution does see your unspecified personal information for analytics or research. The data is personally identifiable.'
p288
g5
sS'An unnamed third party does receive your unspecified personal information for targeted advertising. The data is personally identifiable.'
p289
g5
sS"Do Not Track headers are mentioned but it is unclear if the company adheres to the user's Do Not Track preference."
p290
g2
sS'An unnamed third party does receive your financial information for a basic service or feature.'
p291
g5
sS'A named third party does receive your activities on the website or app for personalization or customization.'
p292
g5
sS'The policy makes a statement about how data from Californian users is treated (e.g., California privacy rights).'
p293
g19
sS"The site collects your location information for an unspecified purpose. Collection happens when you explicitly provide information in an unspecified way, and your data's identifiability is not covered by our label scheme."
p294
g2
sS'The site collects your contact information for an unspecified purpose. Collection happens by some means outside of our label scheme.'
p295
g2
sS'An unnamed third party does receive your unspecified personal information for personalization or customization. The data is aggregated or anonymized.'
p296
g5
sS"When a change of an unspecified nature is made to the privacy policy, users are notified when visiting the website. Users' choices regarding policy changes are not mentioned or are unclear."
p297
g7
sS'The site collects your unspecified information for service operations or security. Collection happens on the website.'
p298
g2
sS'You can opt in for the use of user profile by a third party, which collects or receives it for an unspecified purpose.'
p299
g7
sS'The site collects your location information for an additional (non-basic) service or feature. Collection happens in the mobile app. You can choose not to use the service or feature.'
p300
g2
sS'An unnamed third party does receive your unspecified personal information for analytics or research. The data is personally identifiable. You can opt out by contacting the company for the use of your information.'
p301
g5
sS'The site collects your IP address or device IDs for analytics or research. Collection happens by some means outside of our label scheme.'
p302
g2
sS'The site collects your website activities for an unspecified purpose. Collection happens in an unspecified way.'
p303
g2
sS'The site collects your IP address or device IDs for advertising. Collection happens on the website.'
p304
g2
sS'The site collects your cookies or tracking elements for an unspecified purpose. Collection happens when you implicitly provide information on the website. You can configure your privacy with third-party user settings.'
p305
g2
sS'A named third party does receive your unspecified personal information for an unspecified purpose.'
p306
g5
sS'You can opt out (via a link) from the use of information of a type not covered by our label scheme by a third party, which collects or receives it for an unspecified purpose.'
p307
g7
sS'The site collects your contact information for personalization or customization. Collection happens when you explicitly provide information in an unspecified way, and your data is identifiable.'
p308
g2
sS'The site collects your IP address or device IDs for an unspecified purpose. Collection happens when you implicitly provide information in an unspecified way. You can choose not to use the service or feature.'
p309
g2
sS'The site collects your unspecified information for analytics or research. Collection happens by some means outside of our label scheme.'
p310
g2
sS'The company/organization has a privacy or security program/organization in place addressing, for example, how to protect data against unauthorized access or privacy training for employees.'
p311
g17
sS'An unnamed third party does receive unspecified information about you for legal requirements.'
p312
g5
sS'The site collects your demographic information for an unspecified purpose. Collection happens when you explicitly provide information on the website, and your data is identifiable.'
p313
g2
sS'The site collects your cookies or tracking elements for a basic service or feature. Collection happens in an unspecified way.'
p314
g2
sS'Users with accounts can edit their information, within the scope of information explicitly provided by the user.'
p315
g19
sS'An unnamed third party does do something unspecified with your cookies or tracking elements for an unspecified purpose. You can configure your privacy with browser settings.'
p316
g5
sS'An unspecified third party does receive your unspecified personal information for mergers or acquisitions.'
p317
g5
sS'The site collects your contact information for marketing purposes. Collection happens on the website, and your data is identifiable. You can opt out using the provided link.'
p318
g2
sS'The site collects your cookies or tracking elements for analytics or research. Collection happens when you implicitly provide information in an unspecified way.'
p319
g2
sS'The site collects your generic personal information for an unspecified purpose. Collection happens by other parts of the company or affiliates.'
p320
g2
sS"A user's unspecified information is retained for a limited (but unspecified) period of time to fulfill an unspecified purpose."
p321
g17
sS'The site collects your demographic information for a basic service or feature. Collection happens in an unspecified way, and your data is identifiable.'
p322
g2
sS'The site collects your cookies or tracking elements for an unspecified purpose. Collection happens on the website.'
p323
g2
sS'The site collects your cookies or tracking elements for advertising. Collection happens when you implicitly provide information on the website, and your data is aggregated or anonymized. You can configure your privacy with browser settings.'
p324
g2
sS"A user's generic personal information is retained for a limited (but unspecified) period of time to meet legal or law enforcement requirements, and then it is deleted.."
p325
g17
sS'The site collects your user profile for advertising. Collection happens when you explicitly provide information in an unspecified way.'
p326
g2
sS'Users with accounts can view their information, within the scope of transactional data (e.g., online activity, purchases).'
p327
g19
sS'The site collects your unspecified information for an unspecified purpose. Collection happens by some means outside of our label scheme for users with accounts.'
p328
g2
sS'The site collects your generic personal information for legal requirements. Collection happens when you implicitly provide information in an unspecified way.'
p329
g2
sS'The site collects your cookies or tracking elements for an additional (non-basic) service or feature. Collection happens when you implicitly provide information in an unspecified way for users with accounts, and your data is identifiable. You can configure your privacy with browser settings for the collection of your information.'
p330
g2
sS'An unspecified third party does receive your unspecified personal information for service operations or security.'
p331
g5
sS'A named third party does receive your unspecified personal information for a basic service or feature. The data is personally identifiable.'
p332
g5
sS'When a change of an unspecified nature is made to the privacy policy, the policy date is updated or information about the change is posted as part of the policy. Users can participate in a process to influence the change.'
p333
g7
sS'The site collects your generic personal information for service operations or security. Collection happens when you implicitly provide information in an unspecified way.'
p334
g2
sS'An unnamed third party does collect on the first party website or app your cookies or tracking elements for targeted advertising. The data is aggregated or anonymized.'
p335
g5
sS'The site collects your unspecified information for an unspecified purpose. Collection happens when you implicitly provide information by other websites.'
p336
g2
sS'When a change of an unspecified nature is made to the privacy policy, the policy date is updated or information about the change is posted as part of the policy. Users have no options regarding the change.'
p337
g7
sS'When a change of an unspecified nature is made to the privacy policy, users are notified in an unspecified manner. Users have no options regarding the change.'
p338
g7
sS'The site collects your IP address or device IDs for a basic service or feature. Collection happens in an unspecified way.'
p339
g2
sS'The site collects your unspecified information for marketing purposes. Collection happens when you implicitly provide information in an unspecified way.'
p340
g2
sS'When a change of an unspecified nature is made to the privacy policy, users receive no notification. Users have no options regarding the change.'
p341
g7
sS'An unspecified third party does not receive unspecified information about you for an unspecified purpose. The data is personally identifiable. You can opt in for data collection.'
p342
g5
sS'The site collects your cookies or tracking elements for analytics or research. Collection happens when you implicitly provide information on the website. You can configure your privacy with browser settings.'
p343
g2
sS'The site collects your unspecified information for an unspecified purpose. Collection happens on the website, and your data is identifiable.'
p344
g2
sS'An unspecified third party does not receive unspecified information about you for an unspecified purpose. The data is aggregated or anonymized.'
p345
g5
sS'When a change of an unspecified nature is made to the privacy policy, users are personally notified. Users have no options regarding the change.'
p346
g7
sS'The site collects your cookies or tracking elements for marketing purposes. Collection happens in an unspecified way, and your data is aggregated or anonymized.'
p347
g2
sS'An unspecified third party does receive unspecified information about you for service operations or security.'
p348
g5
sS'You can choose not to use a service or feature to avoid the use of cookies and tracking elements by an unspecified party for a basic service or feature.'
p349
g7
sS'A named third party does not receive unspecified information about you for targeted advertising. The data is personally identifiable.'
p350
g5
sS'A named third party does collect on the first party website or app your activities on the website or app for targeted advertising.'
p351
g5
sS'The site collects your generic personal information for an unspecified purpose. Collection happens when you implicitly provide information in an unspecified way.'
p352
g2
sS'Another part of the company or institution does receive unspecified information about you for an unspecified purpose.'
p353
g5
sS'An unnamed third party does receive your unspecified personal information for an unspecified purpose. You can opt in for data collection.'
p354
g5
sS'A user can access, edit, or delete personal information in an unspecified manner, within the scope of unspecified user information.'
p355
g19
sS'The site collects your generic personal information for analytics or research. Collection happens when you explicitly provide information on the website, and your data is identifiable.'
p356
g2
sS"When a change of an unspecified nature is made to the privacy policy, users receive no notification. Users' choices regarding policy changes are not mentioned or are unclear."
p357
g7
sS'When a change of an unspecified nature is made to the privacy policy, users are notified when visiting the website. Users have no options regarding the change.'
p358
g7
sS'Another part of the company or institution does receive unspecified information about you for service operations or security. The data is personally identifiable.'
p359
g5
sS'The site collects your website activities for analytics or research. Collection happens when you implicitly provide information on the website, and your data is aggregated or anonymized.'
p360
g2
sS'You can opt out (via a link) from the use of contact information by the site, which uses it for marketing purposes.'
p361
g7
sS'The site collects your generic personal information for an unspecified purpose. Collection happens when you explicitly provide information in an unspecified way, and your data is identifiable.'
p362
g2
sS'The site collects an information type outside of our label scheme for an unspecified purpose. Collection happens when you explicitly provide information in an unspecified way for users with accounts.'
p363
g2
sS'The site collects your demographic information for personalization or customization. Collection happens when you implicitly provide information by an unnamed service or third party, and your data is identifiable.'
p364
g2
sS'An unnamed third party does do something unspecified with your cookies or tracking elements for analytics or research.'
p365
g5
sS'The site collects your generic personal information for an unspecified purpose. Collection happens when you explicitly provide information on the website.'
p366
g2
sS'You can make no specified choices about the use of unspecified information by the site, which uses it for legal requirements.'
p367
g7
sS'An unnamed third party does receive your IP address or device IDs for an additional (non-basic) service or feature.'
p368
g5
sS'An unnamed third party does do something unspecified with your computer information for targeted advertising.'
p369
g5
sS'An unnamed third party does track on the first party website or app your cookies or tracking elements for a basic service or feature.'
p370
g5
sS"When a change of an unspecified nature is made to the privacy policy, users are notified in an unspecified manner. Users' choices regarding policy changes are not mentioned or are unclear."
p371
g7
sS'The site collects your cookies or tracking elements for personalization or customization. Collection happens when you implicitly provide information on the website. You can configure your privacy with browser settings.'
p372
g2
sS'You can make no specified choices about the use of unspecified information by a third party, which collects or receives it for advertising.'
p373
g7
sS'An unnamed third party does receive your unspecified personal information for targeted advertising. The data is personally identifiable. You can opt out by contacting the company for the use of your information.'
p374
g5
sS'You can opt out (via a link) from the use of contact information by a third party, which collects or receives it for an unspecified purpose.'
p375
g7
sS'Another part of the company or institution does receive your unspecified personal information for legal requirements. The data is personally identifiable.'
p376
g5
sS'The site collects your website activities for an unspecified purpose. Collection happens when you explicitly provide information in an unspecified way.'
p377
g2
sS'The site collects your IP address or device IDs for an additional (non-basic) service or feature. Collection happens in an unspecified way.'
p378
g2
sS'The site collects your computer information for service operations or security. Collection happens when you implicitly provide information in an unspecified way.'
p379
g2
sS'The site collects your location information for an unspecified purpose. Collection happens when you explicitly provide information in an unspecified way.'
p380
g2
sS"The site collects your cookies or tracking elements for an unspecified purpose. Collection happens when you implicitly provide information on the website, and your data's identifiability is not covered by our label scheme."
p381
g2
sS'Another part of the company or institution does see your unspecified personal information for service operations or security. The data is personally identifiable.'
p382
g5
sS'A user can access, edit, or delete personal information in a manner not covered by our label scheme, within the scope of information explicitly provided by the user.'
p383
g19
sS'A named third party does not collect on the first party website or app your location information for an unspecified purpose. You can opt in for data collection.'
p384
g5
sS'The site collects your financial information for an unspecified purpose. Collection happens on the website, and your data is aggregated or anonymized.'
p385
g2
sS'The site collects your generic personal information for an unspecified purpose. Collection happens when you explicitly provide information on the website. You can opt in for data collection for the collection of your information.'
p386
g2
sS'You can use privacy configuration settings (in the website or app) to control the use of contact information by the site, which uses it for a purpose outside of our label scheme.'
p387
g7
sS'The site collects your IP address or device IDs for personalization or customization. Collection happens in an unspecified way.'
p388
g2
sS'The site collects your cookies or tracking elements for advertising. Collection happens when you implicitly provide information on other websites.'
p389
g2
sS'The site collects your website activities for marketing purposes. Collection happens by a named service or third party.'
p390
g2
sS'A named third party does receive unspecified information about you for a basic service or feature.'
p391
g5
sS'The site collects your contact information for an unspecified purpose. Collection happens by other websites.'
p392
g2
sS'The site collects your cookies or tracking elements for personalization or customization. Collection happens when you implicitly provide information in an unspecified way.'
p393
g2
sS'The site collects your cookies or tracking elements for analytics or research. Collection happens on the website. You can configure your privacy with browser settings.'
p394
g2
sS'A named third party does receive your unspecified personal information for service operations or security. The data is personally identifiable.'
p395
g5
sS'You can use third party privacy settings to control the use of cookies and tracking elements by an unspecified party for an unspecified purpose.'
p396
g7
sS'The site collects your IP address or device IDs for an unspecified purpose. Collection happens when you implicitly provide information in an unspecified way.'
p397
g2
sS'The site collects your generic personal information for an unspecified purpose. Collection happens when you explicitly provide information in an unspecified way, and your data is identifiable. You can opt in for data collection.'
p398
g2
sS'You can opt out (by contacting the company) from the use of unspecified information by the site, which uses it for an unspecified purpose.'
p399
g7
sS'The site collects your financial information for an unspecified purpose. Collection happens in an unspecified way.'
p400
g2
sS'The site collects your website activities for analytics or research. Collection happens in an unspecified way.'
p401
g2
sS'The site collects your generic personal information for personalization or customization. Collection happens when you implicitly provide information in an unspecified way.'
p402
g2
sS'You can use privacy configuration settings (in your browser or on your device) to control the use of unspecified information by an unspecified party for an unspecified purpose.'
p403
g7
sS'An unspecified third party does not receive your unspecified personal information for an unspecified purpose. The data is personally identifiable.'
p404
g5
sS'The site collects an information type outside of our label scheme for an unspecified purpose. Collection happens by other websites.'
p405
g2
sS'You can make no specified choices about the use of contact information by the site, which uses it for a purpose outside of our label scheme.'
p406
g7
sS'An unnamed third party does track on the first party website or app your activities on the website or app for targeted advertising.'
p407
g5
sS'The site collects your cookies or tracking elements for advertising. Collection happens by some means outside of our label scheme.'
p408
g2
sS'The site collects your generic personal information for personalization or customization. Collection happens when you implicitly provide information on the website, and your data is identifiable.'
p409
g2
sS'An unnamed third party does receive your cookies or tracking elements for analytics or research.'
p410
g5
sS'The site collects your cookies or tracking elements for personalization or customization. Collection happens in an unspecified way.'
p411
g2
sS'The site collects your demographic information for an unspecified purpose. Collection happens in an unspecified way.'
p412
g2
sS'When a change is made to the privacy policy that significantly affects data practices, users are notified in a manner outside of our label scheme. Users have no options regarding the change.'
p413
g7
sS'The site collects your contact information for marketing purposes. Collection happens when you implicitly provide information by an unnamed service or third party.'
p414
g2
sS'The site collects your unspecified information for a basic service or feature. Collection happens in an unspecified way.'
p415
g2
sS'The site collects your location information for advertising. Collection happens when you implicitly provide information on the website.'
p416
g2
sS'An unnamed third party does receive unspecified information about you for an additional (non-basic) service or feature. You can opt in for data collection.'
p417
g5
sS'The site collects your generic personal information for marketing purposes. Collection happens by an unnamed service or third party, and your data is identifiable.'
p418
g2
sS'A named third party does track on the first party website or app your activities on the website or app for targeted advertising.'
p419
g5
sS'The site collects your cookies or tracking elements for a purpose outside of our label scheme. Collection happens when you implicitly provide information on the website, and your data is identifiable.'
p420
g2
sS'The site collects your location information for advertising. Collection happens when you explicitly provide information in an unspecified way.'
p421
g2
sS'A named third party does receive your unspecified personal information for mergers or acquisitions. The data is personally identifiable.'
p422
g5
sS'You can use third party privacy settings to control the use of unspecified information by an unspecified party for advertising.'
p423
g7
sS'A user can delete their account (although the company or organization may continue to keep some data), within the scope of unspecified user information.'
p424
g19
sS'The site collects your generic personal information for advertising. Collection happens when you explicitly provide information in an unspecified way.'
p425
g2
sS'A named third party does receive your unspecified personal information for an unspecified purpose. You can choose not to use the service or feature.'
p426
g5
sS'Another part of the company or institution does not do something outside of our label scheme with your unspecified personal information for a basic service or feature. The data is personally identifiable.'
p427
g5
sS'You can make no specified choices about the use of unspecified information by the site, which uses it for a basic service or feature.'
p428
g7
sS'The site collects your website activities for analytics or research. Collection happens by a named service or third party, and your data is aggregated or anonymized.'
p429
g2
sS'An unnamed third party does not receive your unspecified personal information for an unspecified purpose.'
p430
g5
sS'The site collects your generic personal information for service operations or security. Collection happens on the website.'
p431
g2
sS'The site collects your contact information for a basic service or feature. Collection happens in an unspecified way.'
p432
g2
sS'The site does not collect your unspecified information for an unspecified purpose. Collection happens when you explicitly provide information in an unspecified way, and your data is identifiable.'
p433
g2
sS'An unnamed third party does track on the first party website or app your cookies or tracking elements for an unspecified purpose.'
p434
g5
sS'The site collects your cookies or tracking elements for analytics or research. Collection happens on the website.'
p435
g2
sS'The site collects your website activities for an unspecified purpose. Collection happens when you implicitly provide information in an unspecified way.'
p436
g2
sS'An unnamed third party does receive your unspecified personal information for mergers or acquisitions.'
p437
g5
sS'The site collects your contact information for an unspecified purpose. Collection happens when you explicitly provide information in an unspecified way for users with accounts.'
p438
g2
sS'You can opt out (via a link) from the use of unspecified information by the site, which uses it for marketing purposes.'
p439
g7
sS'The site collects your computer information for an unspecified purpose. Collection happens on the website, and your data is aggregated or anonymized.'
p440
g2
sS'The site collects your generic personal information for an additional (non-basic) service or feature. Collection happens when you explicitly provide information in an unspecified way, and your data is identifiable. You can opt in for data collection for the collection of your information.'
p441
g2
sS'An unnamed third party does receive your unspecified personal information for an unspecified purpose. The data is personally identifiable.'
p442
g5
sS'The site collects your generic personal information for a basic service or feature. Collection happens when you explicitly provide information on the website for users with accounts, and your data is identifiable.'
p443
g2
sS'The site collects your generic personal information for a basic service or feature. Collection happens when you explicitly provide information in an unspecified way, and your data is identifiable.'
p444
g2
sS'The site collects your unspecified information for personalization or customization. Collection happens when you implicitly provide information in an unspecified way for users with accounts.'
p445
g2
sS'The site does not collect your generic personal information for an unspecified purpose. Collection happens in an unspecified way.'
p446
g2
sS'The site collects your user profile for personalization or customization. Collection happens when you implicitly provide information on the website for users with accounts, and your data is identifiable.'
p447
g2
sS'You can make a choice about your privacy not described by our label scheme the use of unspecified information by a third party, which collects or receives it for an unspecified purpose.'
p448
g7
sS'A named third party does do something unspecified with your unspecified personal information for an unspecified purpose. The data is personally identifiable.'
p449
g5
sS'The site collects your computer information for analytics or research. Collection happens on the website.'
p450
g2
sS'An unnamed third party does receive unspecified information about you for an unspecified purpose. The data is personally identifiable.'
p451
g5
sS'The site collects your demographic information for an unspecified purpose. Collection happens in an unspecified way, and your data is aggregated or anonymized.'
p452
g2
sS'You can opt out (by contacting the company) from the use of generic personal information by the site, which uses it for an unspecified purpose.'
p453
g7
sS'The site collects your cookies or tracking elements for personalization or customization. Collection happens when you implicitly provide information on the website.'
p454
g2
sS'A user can edit their information, within the scope of unspecified user information.'
p455
g19
sS'The site collects your website activities for an unspecified purpose. Collection happens when you implicitly provide information on the website, and your data is aggregated or anonymized.'
p456
g2
sS'The site collects your generic personal information for an unspecified purpose. Collection happens when you implicitly provide information in an unspecified way. You can choose not to use the service or feature for the collection and use of your information.'
p457
g2
sS'The site collects your cookies or tracking elements for an unspecified purpose. Collection happens when you explicitly provide information on the website. You can configure your privacy with browser settings.'
p458
g2
sS'The site does not collect your location information for an unspecified purpose. Collection happens when you explicitly provide information on the website.'
p459
g2
sS'The site collects your unspecified information for analytics or research. Collection happens when you implicitly provide information on the website, and your data is aggregated or anonymized.'
p460
g2
sS'The site collects your website activities for an unspecified purpose. Collection happens by other websites.'
p461
g2
sS'The public does do something outside of our label scheme with unspecified information about you for an unspecified purpose. You can opt in for data collection for the collection or sharing and use of your information.'
p462
g5
sS'The site collects your generic personal information for analytics or research. Collection happens in an unspecified way.'
p463
g2
sS'You can opt out (by contacting the company) from the use of unspecified information by a third party, which uses it for marketing purposes.'
p464
g7
sS"When a change of an unspecified nature is made to the privacy policy, the policy date is updated or information about the change is posted as part of the policy. Users' choices regarding policy changes are not mentioned or are unclear."
p465
g7
sS'The site collects your website activities for an unspecified purpose. Collection happens by some means outside of our label scheme.'
p466
g2
sS'An unspecified third party does receive your unspecified personal information for legal requirements.'
p467
g5
sS'An unnamed third party does receive your cookies or tracking elements for service operations or security.'
p468
g5
sS'The site collects your website activities for advertising. Collection happens in an unspecified way.'
p469
g2
sS'The site collects your generic personal information for marketing purposes. Collection happens when you implicitly provide information in an unspecified way.'
p470
g2
sS'The site collects your website activities for advertising. Collection happens by a named service or third party, and your data is aggregated or anonymized.'
p471
g2
sS'A named third party does track on the first party website or app your IP address or device IDs for targeted advertising.'
p472
g5
sS'An unnamed third party does do something unspecified with your cookies or tracking elements for an unspecified purpose.'
p473
g5
sS'An unnamed third party does receive your unspecified personal information for an unspecified purpose. The data is aggregated or anonymized.'
p474
g5
sS'An unnamed third party does receive your unspecified personal information for analytics or research. The data is aggregated or anonymized.'
p475
g5
sS'Users with accounts can deactivate their account, within the scope of information explicitly provided by the user.'
p476
g19
sS'The site collects your demographic information for an unspecified purpose. Collection happens on the website, and your data is identifiable.'
p477
g2
sS'The site collects your location information for an unspecified purpose. Collection happens when you implicitly provide information on the website, and your data is aggregated or anonymized.'
p478
g2
sS'The site collects your website activities for analytics or research. Collection happens on the website.'
p479
g2
sS'A named third party does not collect on the first party website or app your unspecified personal information for an unspecified purpose. The data is personally identifiable. You can opt in for data collection.'
p480
g5
sS'A named third party does receive your unspecified personal information for targeted advertising.'
p481
g5
sS'The site collects your cookies or tracking elements for an unspecified purpose. Collection happens when you implicitly provide information on the website.'
p482
g2
sS'The site collects your user profile for a basic service or feature. Collection happens in an unspecified way.'
p483
g2
sS'When a change of a variety outside of our label scheme is made to the privacy policy, users are notified in a manner outside of our label scheme. Users must agree before their data is treated according to the new privacy policy.'
p484
g7
sS'An unnamed third party does not do something unspecified with your unspecified personal information for an unspecified purpose. You can opt in for data collection.'
p485
g5
sS'The site collects your generic personal information for advertising. Collection happens in an unspecified way.'
p486
g2
sS'The site collects your unspecified information for marketing purposes. Collection happens by an unnamed service or third party.'
p487
g2
sS'Other users does receive your user profile for an unspecified purpose.'
p488
g5
sS'A user can view their information, within the scope of information the company has learned about the user.'
p489
g19
sS'The site collects your unspecified information for analytics or research. Collection happens in an unspecified way.'
p490
g2
sS'The site collects an information type outside of our label scheme for an unspecified purpose. Collection happens by some means outside of our label scheme.'
p491
g2
sS'The site collects your location information for advertising. Collection happens when you explicitly provide information by some means outside of our label scheme.'
p492
g2
sS'A named third party does receive unspecified information about you for targeted advertising.'
p493
g5
sS'The site collects your computer information for an unspecified purpose. Collection happens when you implicitly provide information on the website, and your data is aggregated or anonymized.'
p494
g2
sS'The site collects your IP address or device IDs for advertising. Collection happens when you implicitly provide information on the website.'
p495
g2
sS'The site collects your website activities for marketing purposes. Collection happens when you implicitly provide information by an unnamed service or third party.'
p496
g2
sS'The site collects your contact information for a basic service or feature. Collection happens when you explicitly provide information on the website, and your data is identifiable. You can opt out using the provided link for the use of your information.'
p497
g2
sS'The site collects your demographic information for analytics or research. Collection happens on the website.'
p498
g2
sS'The site collects your cookies or tracking elements for an unspecified purpose. Collection happens in an unspecified way.'
p499
g2
sS'An unnamed third party does receive your activities on the website or app for an unspecified purpose.'
p500
g5
sS'The site collects your website activities for personalization or customization. Collection happens when you implicitly provide information on the website.'
p501
g2
sS'The site collects your generic personal information for analytics or research. Collection happens when you explicitly provide information in an unspecified way for users with accounts.'
p502
g2
sS'The site collects your cookies or tracking elements for an unspecified purpose. Collection happens by other websites.'
p503
g2
sS'The site collects your cookies or tracking elements for an unspecified purpose. Collection happens by some means outside of our label scheme.'
p504
g2
sS'The site collects your cookies or tracking elements for a basic service or feature. Collection happens on the website. You can configure your privacy with third-party user settings.'
p505
g2
sS'A user can access, edit, or delete personal information in a manner not covered by our label scheme, within the scope of unspecified user information.'
p506
g19
sS'The site collects your contact information for service operations or security. Collection happens on the website, and your data is identifiable.'
p507
g2
sS'An unnamed third party does collect on the first party website or app your computer information for targeted advertising.'
p508
g5
sS'An unnamed third party does receive your unspecified personal information for a basic service or feature.'
p509
g5
sS'The site collects your generic personal information for an additional (non-basic) service or feature. Collection happens when you explicitly provide information on the website, and your data is identifiable.'
p510
g2
sS"A user's unspecified information is retained for an unspecified duration to perform a requested service, and then it is deleted.."
p511
g17
sS'The site collects your financial information for a basic service or feature. Collection happens when you explicitly provide information in an unspecified way, and your data is identifiable.'
p512
g2
sS'The site collects your unspecified information for an unspecified purpose. Collection happens when you explicitly provide information in an unspecified way for users with accounts, and your data is aggregated or anonymized. You can opt in for data collection for the collection of your information.'
p513
g2
sS'The site collects your cookies or tracking elements for analytics or research. Collection happens in an unspecified way. You can configure your privacy with browser settings.'
p514
g2
sS'The site collects your survey data for an unspecified purpose. Collection happens in an unspecified way.'
p515
g2
sS'An unnamed third party does receive unspecified information about you for targeted advertising.'
p516
g5
sS'An unnamed third party does receive your financial information for a basic service or feature. The data is personally identifiable. You can choose not to use the service or feature.'
p517
g5
sS'The site collects your unspecified information for advertising. Collection happens on other websites.'
p518
g2
sS"When a change is made to the privacy policy that significantly affects data practices, users are personally notified. Users' choices regarding policy changes are not mentioned or are unclear."
p519
g7
sS'An unnamed third party does receive your cookies or tracking elements for an unspecified purpose.'
p520
g5
sS'A user can edit their information, within the scope of information explicitly provided by the user.'
p521
g19
sS'An unnamed third party does collect on the first party website or app your location information for targeted advertising.'
p522
g5
sS'Another part of the company or institution does receive your unspecified personal information for an unspecified purpose.'
p523
g5
sS'The policy makes a statement about how data from children is treated.'
p524
g19
sS'The site collects your user profile for an unspecified purpose. Collection happens by some means outside of our label scheme.'
p525
g2
sS'You can opt in for the use of information of a type not covered by our label scheme by a third party, which collects or receives it for an unspecified purpose.'
p526
g7
sS'The site collects your unspecified information for marketing purposes. Collection happens by an unnamed service or third party, and your data is identifiable.'
p527
g2
sS'The site collects your website activities for service operations or security. Collection happens when you implicitly provide information in an unspecified way.'
p528
g2
sS'The site collects your generic personal information for an unspecified purpose. Collection happens when you implicitly provide information in an unspecified way. You can opt in for data collection.'
p529
g2
sS'You can opt in for the use of generic personal information by the site, which collects it for an unspecified purpose.'
p530
g7
sS'An unnamed third party does receive unspecified information about you for a basic service or feature. The data is personally identifiable.'
p531
g5
sS'The site collects your generic personal information for a basic service or feature. Collection happens when you implicitly provide information in an unspecified way.'
p532
g2
sS'The site collects your unspecified information for a basic service or feature. Collection happens on the website.'
p533
g2
sS'The site collects your cookies or tracking elements for analytics or research. Collection happens in an unspecified way.'
p534
g2
sS'An unspecified third party does not receive unspecified information about you for an unspecified purpose. The data is personally identifiable.'
p535
g5
sS'An unnamed third party does receive your unspecified personal information for analytics or research. The data is personally identifiable.'
p536
g5
sS'The public does receive your unspecified personal information for an additional (non-basic) service or feature. You can opt in for data collection.'
p537
g5
sS'The site collects your cookies or tracking elements for an unspecified purpose. Collection happens when you implicitly provide information in an unspecified way. You can configure your privacy with browser settings.'
p538
g2
sS'An unnamed third party does track on the first party website or app your cookies or tracking elements for personalization or customization.'
p539
g5
sS"The site collects your demographic information for an unspecified purpose. Collection happens when you explicitly provide information in an unspecified way, and your data's identifiability is not covered by our label scheme."
p540
g2
sS'You can opt out (via a link) from the use of unspecified information by an unspecified party for advertising.'
p541
g7
sS'The site collects your website activities for marketing purposes. Collection happens when you implicitly provide information in an unspecified way.'
p542
g2
sS'The site collects your unspecified information for an unspecified purpose. Collection happens when you explicitly provide information on the website. You can opt in for data collection.'
p543
g2
sS'An unnamed third party does receive your unspecified personal information for marketing purposes.'
p544
g5
sS'The site collects your website activities for advertising. Collection happens when you implicitly provide information in an unspecified way.'
p545
g2
sS'Other users does receive your activities on the website or app for an unspecified purpose. The data is personally identifiable. You can opt in for data collection.'
p546
g5
sS'The site collects your generic personal information for a basic service or feature. Collection happens in an unspecified way.'
p547
g2
sS'A named third party does track on the first party website or app your location information for targeted advertising.'
p548
g5
sS'The site collects your computer information for a basic service or feature. Collection happens in an unspecified way.'
p549
g2
sS'The site collects your unspecified information for personalization or customization. Collection happens when you implicitly provide information on the website, and your data is aggregated or anonymized.'
p550
g2
sS'You can make no specified choices about the use of unspecified information by an unspecified party for an unspecified purpose.'
p551
g7
sS"A user's contact information is retained for an unspecified duration to perform a requested service, and then it is deleted.."
p552
g17
sS'A named third party does not receive your unspecified personal information for targeted advertising.'
p553
g5
sS'The site collects your cookies or tracking elements for marketing purposes. Collection happens when you implicitly provide information on other websites.'
p554
g2
sS'The site collects your IP address or device IDs for an unspecified purpose. Collection happens in the mobile app.'
p555
g2
sS'An unnamed third party does track on the first party website or app your cookies or tracking elements for an unspecified purpose. You can opt out using the provided link.'
p556
g5
sS'A named third party does receive your financial information for an unspecified purpose.'
p557
g5
sS'The site collects your unspecified information for advertising. Collection happens on the website.'
p558
g2
sS"When a change of an unspecified nature is made to the privacy policy, users are personally notified. Users' choices regarding policy changes are not mentioned or are unclear."
p559
g7
sS'An unspecified third party does receive unspecified information about you for mergers or acquisitions. The data is personally identifiable.'
p560
g5
sS"A user's unspecified information is retained for a limited (but unspecified) period of time to perform a requested service, and then it is deleted.."
p561
g17
sS'The site collects your generic personal information for an unspecified purpose. Collection happens when you implicitly provide information in an unspecified way. You can choose not to use the service or feature.'
p562
g2
sS'The site collects your website activities for an unspecified purpose. Collection happens when you implicitly provide information on the website.'
p563
g2
sS'The site collects your unspecified information for an additional (non-basic) service or feature. Collection happens on the website.'
p564
g2
sS'A user with an account can opt in for the use of user profile by a third party, which collects or receives it for an additional (non-basic) service or feature.'
p565
g7
sS'The site collects an information type outside of our label scheme for personalization or customization. Collection happens when you explicitly provide information on the website, and your data is identifiable.'
p566
g2
sS'The site collects your cookies or tracking elements for an unspecified purpose. Collection happens when you implicitly provide information in an unspecified way. You can opt out using the provided link.'
p567
g2
sS'Other users does do something outside of our label scheme with unspecified information about you for an additional (non-basic) service or feature.'
p568
g5
sS'When a change of an unspecified nature is made to the privacy policy, users are notified when visiting the website. Users can participate in a process to influence the change.'
p569
g7
sS'A named third party does track on the first party website or app your computer information for targeted advertising.'
p570
g5
sS'You can opt out (via a link) from the use of unique personal identifier by a third party, which collects or receives it for an unspecified purpose.'
p571
g7
sS'The site collects your contact information for personalization or customization. Collection happens when you implicitly provide information by an unnamed service or third party, and your data is identifiable.'
p572
g2
sS'The site collects your generic personal information for marketing purposes. Collection happens when you implicitly provide information by an unnamed service or third party, and your data is identifiable.'
p573
g2
sS'An unnamed third party does do something unspecified with your cookies or tracking elements for targeted advertising. You can make a choice about the use of your information.'
p574
g5
sS'An unspecified third party does receive your unspecified personal information for a purpose outside of our label scheme.'
p575
g5
sS'An unnamed third party does receive unspecified information about you for service operations or security.'
p576
g5
sS'A third party outside of our label scheme does receive unspecified information about you for mergers or acquisitions.'
p577
g5
sS'A named third party does not collect on the first party website or app your contact information for an unspecified purpose. You can opt in for data collection.'
p578
g5
sS'You can opt out (by contacting the company) from the use of generic personal information by a third party, which collects or receives it for marketing purposes.'
p579
g7
sS'An unnamed third party does track on the first party website or app your cookies or tracking elements for targeted advertising.'
p580
g5
sS'The site collects your website activities for a basic service or feature. Collection happens in an unspecified way, and your data is aggregated or anonymized.'
p581
g2
sS'The site collects an information type outside of our label scheme for service operations or security. Collection happens in an unspecified way.'
p582
g2
sS'The site collects your demographic information for marketing purposes. Collection happens when you implicitly provide information by an unnamed service or third party.'
p583
g2
sS'You can opt out (via a link) from the use of unspecified information by a third party, which collects or receives it for an unspecified purpose.'
p584
g7
sS'Data is accessible to employees/third parties on a need-to-know basis.'
p585
g17
sS'A named third party does not track on the first party website or app your unspecified personal information for an unspecified purpose.'
p586
g5
sS'An unnamed third party does track on the first party website or app your activities on the website or app for a basic service or feature.'
p587
g5
sS'When a change is made to the privacy policy that significantly affects data practices, users are personally notified. Users have no options regarding the change.'
p588
g7
sS'An unnamed third party does receive your IP address or device IDs for an unspecified purpose.'
p589
g5
sS'An unnamed third party does not receive your unspecified personal information for targeted advertising.'
p590
g5
sS'The site collects your unspecified information for analytics or research. Collection happens when you implicitly provide information in an unspecified way.'
p591
g2
sS'The site collects your generic personal information for marketing purposes. Collection happens in an unspecified way. You can make a choice about the use of your information.'
p592
g2
sS'The site collects your generic personal information for advertising. Collection happens when you implicitly provide information in an unspecified way.'
p593
g2
sS'You can opt in for the use of contact information by a third party, which collects or receives it for an unspecified purpose.'
p594
g7
sS'The site collects your social media data for an unspecified purpose. Collection happens when you implicitly provide information by other websites.'
p595
g2
sS'The site collects your generic personal information for an unspecified purpose. Collection happens in an unspecified way. You can opt in for data collection for the use of your information.'
p596
g2
sS'The site collects your cookies or tracking elements for a basic service or feature. Collection happens when you implicitly provide information in an unspecified way.'
p597
g2
sS'The site collects your generic personal information for legal requirements. Collection happens on the website, and your data is identifiable.'
p598
g2
sS'The site collects your contact information for an unspecified purpose. Collection happens on the website, and your data is identifiable.'
p599
g2
sS'The site collects your user profile for advertising. Collection happens when you explicitly provide information by some means outside of our label scheme.'
p600
g2
sS'The site collects your generic personal information for personalization or customization. Collection happens in an unspecified way. You can make a choice about the use of your information.'
p601
g2
sS'The site collects your cookies or tracking elements for a basic service or feature. Collection happens in an unspecified way, and your data is aggregated or anonymized.'
p602
g2
sS'You can choose not to use a service or feature to avoid the use of unspecified information by the site, which collects it for a basic service or feature.'
p603
g7
sS'Other users does receive your activities on the website or app for an additional (non-basic) service or feature. You can opt in for data collection.'
p604
g5
sS'A named third party does receive your unspecified personal information for targeted advertising. The data is personally identifiable.'
p605
g5
sS'The site collects your demographic information for a basic service or feature. Collection happens in an unspecified way, and your data is aggregated or anonymized.'
p606
g2
sS'The site collects your IP address or device IDs for an unspecified purpose. Collection happens when you implicitly provide information on the website, and your data is aggregated or anonymized.'
p607
g2
sS'Other users does see your unspecified personal information for a purpose outside of our label scheme.'
p608
g5
sS'The site collects your demographic information for a basic service or feature. Collection happens when you explicitly provide information on the website, and your data is identifiable.'
p609
g2
sS'The site does not collect your contact information for an unspecified purpose. Collection happens when you explicitly provide information on the website.'
p610
g2
sS'The site collects your demographic information for a basic service or feature. Collection happens on the website for users with accounts. You can opt in for data collection.'
p611
g2
sS"When a change is made to the privacy policy that significantly affects data practices, users are notified when visiting the website. Users' choices regarding policy changes are not mentioned or are unclear."
p612
g7
sS'The site collects your generic personal information for an unspecified purpose. Collection happens when you explicitly provide information in an unspecified way for users with accounts.'
p613
g2
sS'An unnamed third party does collect on the first party website or app your activities on the website or app for targeted advertising.'
p614
g5
sS'The site collects your unspecified information for an unspecified purpose. Collection happens when you explicitly provide information in an unspecified way.'
p615
g2
sS'The site collects your location information for an unspecified purpose. Collection happens when you implicitly provide information in an unspecified way.'
p616
g2
sS'You can opt out (by contacting the company) from the use of unspecified information by the site, which uses it for marketing purposes.'
p617
g7
sS'An unnamed third party does not do something outside of our label scheme with your unspecified personal information for a basic service or feature. The data is personally identifiable.'
p618
g5
sS'A named third party does track on the first party website or app your cookies or tracking elements for targeted advertising.'
p619
g5
sS'An unnamed third party does receive your unspecified personal information for service operations or security.'
p620
g5
sS'The site collects your website activities for analytics or research. Collection happens by some means outside of our label scheme.'
p621
g2
sS'The site collects your cookies or tracking elements for personalization or customization. Collection happens when you implicitly provide information on the website for users with accounts, and your data is identifiable.'
p622
g2
sS'The site collects your generic personal information for marketing purposes. Collection happens when you explicitly provide information in an unspecified way for users with accounts.'
p623
g2
sS'An unnamed third party does receive your contact information for targeted advertising. The data is personally identifiable. You can opt out by contacting the company.'
p624
g5
sS'The site collects your contact information for an unspecified purpose. Collection happens when you explicitly provide information on the website, and your data is identifiable.'
p625
g2
sS'An unnamed third party does collect on the first party website or app your unspecified personal information for an unspecified purpose. The data is personally identifiable.'
p626
g5
sS'The site collects your website activities for an unspecified purpose. Collection happens in an unspecified way, and your data is aggregated or anonymized.'
p627
g2
sS'The site collects your generic personal information for an unspecified purpose. Collection happens when you explicitly provide information on the website, and your data is identifiable.'
p628
g2
sS'The site collects your generic personal information for personalization or customization. Collection happens when you explicitly provide information in an unspecified way, and your data is identifiable.'
p629
g2
sS'An unnamed third party does receive your unspecified personal information for a basic service or feature. The data is personally identifiable.'
p630
g5
sS'An unnamed third party does receive your cookies or tracking elements for targeted advertising.'
p631
g5
sS'The site collects your IP address or device IDs for a basic service or feature. Collection happens in the mobile app.'
p632
g2
sS"A user's unspecified information is retained for an unspecified duration to meet legal or law enforcement requirements, and then it is deleted.."
p633
g17
sS'You can choose not to use a service or feature to avoid the use of generic personal information by the site, which collects it for an unspecified purpose.'
p634
g7
sS'The public does see unspecified information about you for an unspecified purpose. You can opt in for data collection for the use of your information.'
p635
g5
sS'The site collects your contact information for a purpose outside of our label scheme. Collection happens by some means outside of our label scheme. You can configure your privacy using a method outside our label scheme for the use of your information.'
p636
g2
sS'Users with accounts can edit their information, within the scope of information the company has learned about the user.'
p637
g19
sS'The site collects your social media data for an additional (non-basic) service or feature. Collection happens by an unnamed service or third party.'
p638
g2
sS'The policy makes a statement about data from a demographic outside of our label scheme.'
p639
g19
s.